	.file	"\345\260\201\350\243\205\346\241\210\344\276\213.cpp"
	.text
.Ltext0:
	.cfi_sections	.debug_frame
	.file 0 "D://Workspace//CPP//CppLearning//cmake-build-debug" "D:/Workspace/CPP/CppLearning/class/\345\260\201\350\243\205\346\241\210\344\276\213.cpp"
	.section	.text$_ZSt23__is_constant_evaluatedv,"x"
	.linkonce discard
	.globl	_ZSt23__is_constant_evaluatedv
	.def	_ZSt23__is_constant_evaluatedv;	.scl	2;	.type	32;	.endef
	.seh_proc	_ZSt23__is_constant_evaluatedv
_ZSt23__is_constant_evaluatedv:
.LFB1:
	.file 1 "D:/Program Files/JetBrains/CLion 2024.2.3/bin/mingw/lib/gcc/x86_64-w64-mingw32/13.1.0/include/c++/x86_64-w64-mingw32/bits/c++config.h"
	.loc 1 541 3
	.cfi_startproc
	pushq	%rbp
	.seh_pushreg	%rbp
	.cfi_def_cfa_offset 16
	.cfi_offset 6, -16
	movq	%rsp, %rbp
	.seh_setframe	%rbp, 0
	.cfi_def_cfa_register 6
	.seh_endprologue
	.loc 1 547 44
	movl	$0, %eax
	.loc 1 551 3
	popq	%rbp
	.cfi_restore 6
	.cfi_def_cfa 7, 8
	ret
	.cfi_endproc
.LFE1:
	.seh_endproc
	.section	.text$_ZnwyPv,"x"
	.linkonce discard
	.globl	_ZnwyPv
	.def	_ZnwyPv;	.scl	2;	.type	32;	.endef
	.seh_proc	_ZnwyPv
_ZnwyPv:
.LFB95:
	.file 2 "D:/Program Files/JetBrains/CLion 2024.2.3/bin/mingw/lib/gcc/x86_64-w64-mingw32/13.1.0/include/c++/new"
	.loc 2 175 1
	.cfi_startproc
	pushq	%rbp
	.seh_pushreg	%rbp
	.cfi_def_cfa_offset 16
	.cfi_offset 6, -16
	movq	%rsp, %rbp
	.seh_setframe	%rbp, 0
	.cfi_def_cfa_register 6
	.seh_endprologue
	movq	%rcx, 16(%rbp)
	movq	%rdx, 24(%rbp)
	.loc 2 175 10
	movq	24(%rbp), %rax
	.loc 2 175 15
	popq	%rbp
	.cfi_restore 6
	.cfi_def_cfa 7, 8
	ret
	.cfi_endproc
.LFE95:
	.seh_endproc
	.section	.text$_ZSt21is_constant_evaluatedv,"x"
	.linkonce discard
	.globl	_ZSt21is_constant_evaluatedv
	.def	_ZSt21is_constant_evaluatedv;	.scl	2;	.type	32;	.endef
	.seh_proc	_ZSt21is_constant_evaluatedv
_ZSt21is_constant_evaluatedv:
.LFB113:
	.file 3 "D:/Program Files/JetBrains/CLion 2024.2.3/bin/mingw/lib/gcc/x86_64-w64-mingw32/13.1.0/include/c++/type_traits"
	.loc 3 3645 3
	.cfi_startproc
	pushq	%rbp
	.seh_pushreg	%rbp
	.cfi_def_cfa_offset 16
	.cfi_offset 6, -16
	movq	%rsp, %rbp
	.seh_setframe	%rbp, 0
	.cfi_def_cfa_register 6
	.seh_endprologue
	.loc 3 3649 44
	movl	$0, %eax
	.loc 3 3651 3
	popq	%rbp
	.cfi_restore 6
	.cfi_def_cfa 7, 8
	ret
	.cfi_endproc
.LFE113:
	.seh_endproc
	.section	.text$_ZNSt11char_traitsIcE6assignERcRKc,"x"
	.linkonce discard
	.globl	_ZNSt11char_traitsIcE6assignERcRKc
	.def	_ZNSt11char_traitsIcE6assignERcRKc;	.scl	2;	.type	32;	.endef
	.seh_proc	_ZNSt11char_traitsIcE6assignERcRKc
_ZNSt11char_traitsIcE6assignERcRKc:
.LFB303:
	.file 4 "D:/Program Files/JetBrains/CLion 2024.2.3/bin/mingw/lib/gcc/x86_64-w64-mingw32/13.1.0/include/c++/bits/char_traits.h"
	.loc 4 361 7
	.cfi_startproc
	pushq	%rbp
	.seh_pushreg	%rbp
	.cfi_def_cfa_offset 16
	.cfi_offset 6, -16
	movq	%rsp, %rbp
	.seh_setframe	%rbp, 0
	.cfi_def_cfa_register 6
	subq	$32, %rsp
	.seh_stackalloc	32
	.seh_endprologue
	movq	%rcx, 16(%rbp)
	movq	%rdx, 24(%rbp)
	.loc 4 364 34
	call	_ZSt23__is_constant_evaluatedv
	.loc 4 364 2 discriminator 1
	testb	%al, %al
	je	.L8
	.loc 4 365 21
	movq	24(%rbp), %rdx
	movq	16(%rbp), %rax
	movq	%rax, %rcx
	call	_ZSt12construct_atIcJRKcEEDTgsnwcvPvLi0E_T_pispcl7declvalIT0_EEEEPS3_DpOS4_
	.loc 4 369 7
	jmp	.L10
.L8:
	.loc 4 368 9
	movq	24(%rbp), %rax
	movzbl	(%rax), %edx
	.loc 4 368 7
	movq	16(%rbp), %rax
	movb	%dl, (%rax)
.L10:
	.loc 4 369 7
	nop
	addq	$32, %rsp
	popq	%rbp
	.cfi_restore 6
	.cfi_def_cfa 7, 8
	ret
	.cfi_endproc
.LFE303:
	.seh_endproc
	.section	.text$_ZNSt11char_traitsIcE6lengthEPKc,"x"
	.linkonce discard
	.globl	_ZNSt11char_traitsIcE6lengthEPKc
	.def	_ZNSt11char_traitsIcE6lengthEPKc;	.scl	2;	.type	32;	.endef
	.seh_proc	_ZNSt11char_traitsIcE6lengthEPKc
_ZNSt11char_traitsIcE6lengthEPKc:
.LFB307:
	.loc 4 403 7
	.cfi_startproc
	pushq	%rbp
	.seh_pushreg	%rbp
	.cfi_def_cfa_offset 16
	.cfi_offset 6, -16
	movq	%rsp, %rbp
	.seh_setframe	%rbp, 0
	.cfi_def_cfa_register 6
	subq	$32, %rsp
	.seh_stackalloc	32
	.seh_endprologue
	movq	%rcx, 16(%rbp)
	.loc 4 406 34
	call	_ZSt23__is_constant_evaluatedv
	.loc 4 406 2 discriminator 1
	testb	%al, %al
	je	.L12
	.loc 4 407 52
	movq	16(%rbp), %rax
	movq	%rax, %rcx
	call	_ZN9__gnu_cxx11char_traitsIcE6lengthEPKc
	.loc 4 407 56
	jmp	.L13
.L12:
	.loc 4 409 25
	movq	16(%rbp), %rax
	movq	%rax, %rcx
	call	strlen
	.loc 4 409 29
	nop
.L13:
	.loc 4 410 7
	addq	$32, %rsp
	popq	%rbp
	.cfi_restore 6
	.cfi_def_cfa 7, 8
	ret
	.cfi_endproc
.LFE307:
	.seh_endproc
	.section	.text$_ZNSt11char_traitsIcE4copyEPcPKcy,"x"
	.linkonce discard
	.globl	_ZNSt11char_traitsIcE4copyEPcPKcy
	.def	_ZNSt11char_traitsIcE4copyEPcPKcy;	.scl	2;	.type	32;	.endef
	.seh_proc	_ZNSt11char_traitsIcE4copyEPcPKcy
_ZNSt11char_traitsIcE4copyEPcPKcy:
.LFB310:
	.loc 4 437 7
	.cfi_startproc
	pushq	%rbp
	.seh_pushreg	%rbp
	.cfi_def_cfa_offset 16
	.cfi_offset 6, -16
	movq	%rsp, %rbp
	.seh_setframe	%rbp, 0
	.cfi_def_cfa_register 6
	subq	$32, %rsp
	.seh_stackalloc	32
	.seh_endprologue
	movq	%rcx, 16(%rbp)
	movq	%rdx, 24(%rbp)
	movq	%r8, 32(%rbp)
	.loc 4 439 2
	cmpq	$0, 32(%rbp)
	jne	.L15
	.loc 4 440 11
	movq	16(%rbp), %rax
	jmp	.L16
.L15:
	.loc 4 442 34
	call	_ZSt23__is_constant_evaluatedv
	.loc 4 442 2 discriminator 1
	testb	%al, %al
	je	.L17
	.loc 4 443 50
	movq	32(%rbp), %rcx
	movq	24(%rbp), %rdx
	movq	16(%rbp), %rax
	movq	%rcx, %r8
	movq	%rax, %rcx
	call	_ZN9__gnu_cxx11char_traitsIcE4copyEPcPKcy
	.loc 4 443 66
	jmp	.L16
.L17:
	.loc 4 445 49
	movq	16(%rbp), %rdx
	movq	24(%rbp), %rax
	movq	%rdx, %rcx
	movq	%rax, %rdx
	movq	32(%rbp), %rax
	movq	%rax, %r8
	call	memcpy
	.loc 4 445 66
	nop
.L16:
	.loc 4 446 7
	addq	$32, %rsp
	popq	%rbp
	.cfi_restore 6
	.cfi_def_cfa 7, 8
	ret
	.cfi_endproc
.LFE310:
	.seh_endproc
	.section	.text$_ZNKSt7__cxx1112basic_stringIcSt11char_traitsIcESaIcEE4sizeEv,"x"
	.linkonce discard
	.align 2
	.globl	_ZNKSt7__cxx1112basic_stringIcSt11char_traitsIcESaIcEE4sizeEv
	.def	_ZNKSt7__cxx1112basic_stringIcSt11char_traitsIcESaIcEE4sizeEv;	.scl	2;	.type	32;	.endef
	.seh_proc	_ZNKSt7__cxx1112basic_stringIcSt11char_traitsIcESaIcEE4sizeEv
_ZNKSt7__cxx1112basic_stringIcSt11char_traitsIcESaIcEE4sizeEv:
.LFB1573:
	.file 5 "D:/Program Files/JetBrains/CLion 2024.2.3/bin/mingw/lib/gcc/x86_64-w64-mingw32/13.1.0/include/c++/bits/basic_string.h"
	.loc 5 1070 7
	.cfi_startproc
	pushq	%rbp
	.seh_pushreg	%rbp
	.cfi_def_cfa_offset 16
	.cfi_offset 6, -16
	movq	%rsp, %rbp
	.seh_setframe	%rbp, 0
	.cfi_def_cfa_register 6
	.seh_endprologue
	movq	%rcx, 16(%rbp)
	.loc 5 1071 16
	movq	16(%rbp), %rax
	movq	8(%rax), %rax
	.loc 5 1071 34
	popq	%rbp
	.cfi_restore 6
	.cfi_def_cfa 7, 8
	ret
	.cfi_endproc
.LFE1573:
	.seh_endproc
	.section .rdata,"dr"
.LC0:
	.ascii "\345\247\223\345\220\215\357\274\232\0"
.LC1:
	.ascii " \345\255\246\345\217\267\357\274\232\0"
	.section	.text$_ZN7Student11showStudentEv,"x"
	.linkonce discard
	.align 2
	.globl	_ZN7Student11showStudentEv
	.def	_ZN7Student11showStudentEv;	.scl	2;	.type	32;	.endef
	.seh_proc	_ZN7Student11showStudentEv
_ZN7Student11showStudentEv:
.LFB2443:
	.file 6 "D:/Workspace/CPP/CppLearning/class/\345\260\201\350\243\205\346\241\210\344\276\213.cpp"
	.loc 6 16 10
	.cfi_startproc
	pushq	%rbp
	.seh_pushreg	%rbp
	.cfi_def_cfa_offset 16
	.cfi_offset 6, -16
	movq	%rsp, %rbp
	.seh_setframe	%rbp, 0
	.cfi_def_cfa_register 6
	subq	$32, %rsp
	.seh_stackalloc	32
	.seh_endprologue
	movq	%rcx, 16(%rbp)
	.loc 6 17 42
	leaq	.LC0(%rip), %rax
	movq	%rax, %rdx
	movq	.refptr._ZSt4cout(%rip), %rax
	movq	%rax, %rcx
	call	_ZStlsISt11char_traitsIcEERSt13basic_ostreamIcT_ES5_PKc
	movq	%rax, %rcx
	.loc 6 17 32 discriminator 1
	movq	16(%rbp), %rax
	.loc 6 17 42 discriminator 1
	movq	%rax, %rdx
	call	_ZStlsIcSt11char_traitsIcESaIcEERSt13basic_ostreamIT_T0_ES7_RKNSt7__cxx1112basic_stringIS4_S5_T1_EE
	movq	%rax, %rcx
	.loc 6 17 42 is_stmt 0 discriminator 2
	leaq	.LC1(%rip), %rax
	movq	%rax, %rdx
	call	_ZStlsISt11char_traitsIcEERSt13basic_ostreamIcT_ES5_PKc
	movq	%rax, %rcx
	.loc 6 17 58 is_stmt 1 discriminator 3
	movq	16(%rbp), %rax
	movl	32(%rax), %eax
	movl	%eax, %edx
	call	_ZNSolsEi
	movq	%rax, %rcx
	.loc 6 17 66 discriminator 4
	movq	.refptr._ZSt4endlIcSt11char_traitsIcEERSt13basic_ostreamIT_T0_ES6_(%rip), %rax
	movq	%rax, %rdx
	call	_ZNSolsEPFRSoS_E
	.loc 6 18 5
	nop
	addq	$32, %rsp
	popq	%rbp
	.cfi_restore 6
	.cfi_def_cfa 7, 8
	ret
	.cfi_endproc
.LFE2443:
	.seh_endproc
	.section	.text$_ZN7Student7setNameENSt7__cxx1112basic_stringIcSt11char_traitsIcESaIcEEE,"x"
	.linkonce discard
	.align 2
	.globl	_ZN7Student7setNameENSt7__cxx1112basic_stringIcSt11char_traitsIcESaIcEEE
	.def	_ZN7Student7setNameENSt7__cxx1112basic_stringIcSt11char_traitsIcESaIcEEE;	.scl	2;	.type	32;	.endef
	.seh_proc	_ZN7Student7setNameENSt7__cxx1112basic_stringIcSt11char_traitsIcESaIcEEE
_ZN7Student7setNameENSt7__cxx1112basic_stringIcSt11char_traitsIcESaIcEEE:
.LFB2444:
	.loc 6 20 10
	.cfi_startproc
	pushq	%rbp
	.seh_pushreg	%rbp
	.cfi_def_cfa_offset 16
	.cfi_offset 6, -16
	movq	%rsp, %rbp
	.seh_setframe	%rbp, 0
	.cfi_def_cfa_register 6
	subq	$32, %rsp
	.seh_stackalloc	32
	.seh_endprologue
	movq	%rcx, 16(%rbp)
	movq	%rdx, 24(%rbp)
	.loc 6 21 18
	movq	16(%rbp), %rax
	movq	24(%rbp), %rdx
	movq	%rax, %rcx
	call	_ZNSt7__cxx1112basic_stringIcSt11char_traitsIcESaIcEEaSERKS4_
	.loc 6 22 5
	nop
	addq	$32, %rsp
	popq	%rbp
	.cfi_restore 6
	.cfi_def_cfa 7, 8
	ret
	.cfi_endproc
.LFE2444:
	.seh_endproc
	.section	.text$_ZN7Student5setIdEi,"x"
	.linkonce discard
	.align 2
	.globl	_ZN7Student5setIdEi
	.def	_ZN7Student5setIdEi;	.scl	2;	.type	32;	.endef
	.seh_proc	_ZN7Student5setIdEi
_ZN7Student5setIdEi:
.LFB2445:
	.loc 6 24 10
	.cfi_startproc
	pushq	%rbp
	.seh_pushreg	%rbp
	.cfi_def_cfa_offset 16
	.cfi_offset 6, -16
	movq	%rsp, %rbp
	.seh_setframe	%rbp, 0
	.cfi_def_cfa_register 6
	.seh_endprologue
	movq	%rcx, 16(%rbp)
	movl	%edx, 24(%rbp)
	.loc 6 25 14
	movq	16(%rbp), %rax
	movl	24(%rbp), %edx
	movl	%edx, 32(%rax)
	.loc 6 26 5
	nop
	popq	%rbp
	.cfi_restore 6
	.cfi_def_cfa 7, 8
	ret
	.cfi_endproc
.LFE2445:
	.seh_endproc
	.section	.text$_ZN7StudentC1Ev,"x"
	.linkonce discard
	.align 2
	.globl	_ZN7StudentC1Ev
	.def	_ZN7StudentC1Ev;	.scl	2;	.type	32;	.endef
	.seh_proc	_ZN7StudentC1Ev
_ZN7StudentC1Ev:
.LFB2450:
	.loc 6 10 7
	.cfi_startproc
	pushq	%rbp
	.seh_pushreg	%rbp
	.cfi_def_cfa_offset 16
	.cfi_offset 6, -16
	movq	%rsp, %rbp
	.seh_setframe	%rbp, 0
	.cfi_def_cfa_register 6
	subq	$32, %rsp
	.seh_stackalloc	32
	.seh_endprologue
	movq	%rcx, 16(%rbp)
.LBB123:
	.loc 6 10 7
	movq	16(%rbp), %rax
	movq	%rax, %rcx
	call	_ZNSt7__cxx1112basic_stringIcSt11char_traitsIcESaIcEEC1Ev
.LBE123:
	nop
	addq	$32, %rsp
	popq	%rbp
	.cfi_restore 6
	.cfi_def_cfa 7, 8
	ret
	.cfi_endproc
.LFE2450:
	.seh_endproc
	.section	.text$_ZNSt7__cxx1112basic_stringIcSt11char_traitsIcESaIcEE12_Alloc_hiderD1Ev,"x"
	.linkonce discard
	.align 2
	.globl	_ZNSt7__cxx1112basic_stringIcSt11char_traitsIcESaIcEE12_Alloc_hiderD1Ev
	.def	_ZNSt7__cxx1112basic_stringIcSt11char_traitsIcESaIcEE12_Alloc_hiderD1Ev;	.scl	2;	.type	32;	.endef
	.seh_proc	_ZNSt7__cxx1112basic_stringIcSt11char_traitsIcESaIcEE12_Alloc_hiderD1Ev
_ZNSt7__cxx1112basic_stringIcSt11char_traitsIcESaIcEE12_Alloc_hiderD1Ev:
.LFB2454:
	.loc 5 192 14
	.cfi_startproc
	pushq	%rbp
	.seh_pushreg	%rbp
	.cfi_def_cfa_offset 16
	.cfi_offset 6, -16
	movq	%rsp, %rbp
	.seh_setframe	%rbp, 0
	.cfi_def_cfa_register 6
	subq	$16, %rsp
	.seh_stackalloc	16
	.seh_endprologue
	movq	%rcx, 16(%rbp)
	movq	16(%rbp), %rax
	movq	%rax, -8(%rbp)
.LBB124:
.LBB125:
.LBB126:
	.file 7 "D:/Program Files/JetBrains/CLion 2024.2.3/bin/mingw/lib/gcc/x86_64-w64-mingw32/13.1.0/include/c++/bits/allocator.h"
	.loc 7 184 31
	nop
.LBE126:
.LBE125:
.LBE124:
	.loc 5 192 14
	nop
	addq	$16, %rsp
	popq	%rbp
	.cfi_restore 6
	.cfi_def_cfa 7, 8
	ret
	.cfi_endproc
.LFE2454:
	.seh_endproc
	.section	.text$_ZNSt7__cxx1112basic_stringIcSt11char_traitsIcESaIcEEC1Ev,"x"
	.linkonce discard
	.align 2
	.globl	_ZNSt7__cxx1112basic_stringIcSt11char_traitsIcESaIcEEC1Ev
	.def	_ZNSt7__cxx1112basic_stringIcSt11char_traitsIcESaIcEEC1Ev;	.scl	2;	.type	32;	.endef
	.seh_proc	_ZNSt7__cxx1112basic_stringIcSt11char_traitsIcESaIcEEC1Ev
_ZNSt7__cxx1112basic_stringIcSt11char_traitsIcESaIcEEC1Ev:
.LFB2456:
	.loc 5 523 7
	.cfi_startproc
	pushq	%rbp
	.seh_pushreg	%rbp
	.cfi_def_cfa_offset 16
	.cfi_offset 6, -16
	pushq	%rbx
	.seh_pushreg	%rbx
	.cfi_def_cfa_offset 24
	.cfi_offset 3, -24
	subq	$72, %rsp
	.seh_stackalloc	72
	.cfi_def_cfa_offset 96
	leaq	64(%rsp), %rbp
	.seh_setframe	%rbp, 64
	.cfi_def_cfa 6, 32
	.seh_endprologue
	movq	%rcx, 32(%rbp)
.LBB127:
	.loc 5 525 9
	movq	32(%rbp), %rbx
	leaq	-25(%rbp), %rax
	movq	%rax, -24(%rbp)
.LBB128:
.LBB129:
.LBB130:
.LBB131:
.LBB132:
	.file 8 "D:/Program Files/JetBrains/CLion 2024.2.3/bin/mingw/lib/gcc/x86_64-w64-mingw32/13.1.0/include/c++/bits/new_allocator.h"
	.loc 8 88 36
	nop
.LBE132:
.LBE131:
.LBE130:
	.loc 7 163 30
	nop
.LBE129:
.LBE128:
	.loc 5 525 9 discriminator 1
	movq	32(%rbp), %rax
	movq	%rax, %rcx
	call	_ZNSt7__cxx1112basic_stringIcSt11char_traitsIcESaIcEE13_M_local_dataEv
	.loc 5 525 9 is_stmt 0 discriminator 2
	leaq	-25(%rbp), %rdx
	movq	%rdx, %r8
	movq	%rax, %rdx
	movq	%rbx, %rcx
	call	_ZNSt7__cxx1112basic_stringIcSt11char_traitsIcESaIcEE12_Alloc_hiderC1EPcOS3_
.LBB133:
.LBB134:
	.loc 7 184 31 is_stmt 1
	nop
	movq	32(%rbp), %rax
	movq	%rax, -8(%rbp)
.LBE134:
.LBE133:
.LBB135:
.LBB136:
.LBB137:
	.loc 5 362 32
	call	_ZSt21is_constant_evaluatedv
	.loc 5 362 2 discriminator 1
	testb	%al, %al
	je	.L26
.LBB138:
.LBB139:
	.loc 5 363 19
	movq	$0, -16(%rbp)
	.loc 5 363 4
	jmp	.L27
.L28:
	.loc 5 364 24
	movq	-8(%rbp), %rdx
	movq	-16(%rbp), %rax
	addq	%rdx, %rax
	addq	$16, %rax
	movb	$0, (%rax)
	.loc 5 363 4 discriminator 3
	addq	$1, -16(%rbp)
.L27:
	.loc 5 363 32 discriminator 1
	cmpq	$15, -16(%rbp)
	jbe	.L28
.L26:
.LBE139:
.LBE138:
.LBE137:
	.loc 5 366 22
	movq	-8(%rbp), %rax
	movq	%rax, %rcx
	call	_ZNSt7__cxx1112basic_stringIcSt11char_traitsIcESaIcEE13_M_local_dataEv
	.loc 5 366 23
	nop
.LBE136:
.LBE135:
	.loc 5 528 15
	movq	32(%rbp), %rax
	movl	$0, %edx
	movq	%rax, %rcx
	call	_ZNSt7__cxx1112basic_stringIcSt11char_traitsIcESaIcEE13_M_set_lengthEy
.LBE127:
	.loc 5 529 7
	nop
	addq	$72, %rsp
	popq	%rbx
	.cfi_restore 3
	popq	%rbp
	.cfi_restore 6
	.cfi_def_cfa 7, -56
	ret
	.cfi_endproc
.LFE2456:
	.def	__gxx_personality_seh0;	.scl	2;	.type	32;	.endef
	.seh_handler	__gxx_personality_seh0, @unwind, @except
	.seh_handlerdata
.LLSDA2456:
	.byte	0xff
	.byte	0xff
	.byte	0x1
	.uleb128 .LLSDACSE2456-.LLSDACSB2456
.LLSDACSB2456:
.LLSDACSE2456:
	.section	.text$_ZNSt7__cxx1112basic_stringIcSt11char_traitsIcESaIcEEC1Ev,"x"
	.linkonce discard
	.seh_endproc
	.section	.text$_ZNSt7__cxx1112basic_stringIcSt11char_traitsIcESaIcEE13_M_local_dataEv,"x"
	.linkonce discard
	.align 2
	.globl	_ZNSt7__cxx1112basic_stringIcSt11char_traitsIcESaIcEE13_M_local_dataEv
	.def	_ZNSt7__cxx1112basic_stringIcSt11char_traitsIcESaIcEE13_M_local_dataEv;	.scl	2;	.type	32;	.endef
	.seh_proc	_ZNSt7__cxx1112basic_stringIcSt11char_traitsIcESaIcEE13_M_local_dataEv
_ZNSt7__cxx1112basic_stringIcSt11char_traitsIcESaIcEE13_M_local_dataEv:
.LFB2457:
	.loc 5 238 7
	.cfi_startproc
	pushq	%rbp
	.seh_pushreg	%rbp
	.cfi_def_cfa_offset 16
	.cfi_offset 6, -16
	movq	%rsp, %rbp
	.seh_setframe	%rbp, 0
	.cfi_def_cfa_register 6
	subq	$32, %rsp
	.seh_stackalloc	32
	.seh_endprologue
	movq	%rcx, 16(%rbp)
	.loc 5 241 51
	movq	16(%rbp), %rax
	addq	$16, %rax
	.loc 5 241 49
	movq	%rax, %rcx
	call	_ZNSt19__ptr_traits_ptr_toIPccLb0EE10pointer_toERc
	.loc 5 245 7
	addq	$32, %rsp
	popq	%rbp
	.cfi_restore 6
	.cfi_def_cfa 7, 8
	ret
	.cfi_endproc
.LFE2457:
	.seh_endproc
	.section	.text$_ZNSt19__ptr_traits_ptr_toIPccLb0EE10pointer_toERc,"x"
	.linkonce discard
	.globl	_ZNSt19__ptr_traits_ptr_toIPccLb0EE10pointer_toERc
	.def	_ZNSt19__ptr_traits_ptr_toIPccLb0EE10pointer_toERc;	.scl	2;	.type	32;	.endef
	.seh_proc	_ZNSt19__ptr_traits_ptr_toIPccLb0EE10pointer_toERc
_ZNSt19__ptr_traits_ptr_toIPccLb0EE10pointer_toERc:
.LFB2458:
	.file 9 "D:/Program Files/JetBrains/CLion 2024.2.3/bin/mingw/lib/gcc/x86_64-w64-mingw32/13.1.0/include/c++/bits/ptr_traits.h"
	.loc 9 141 7
	.cfi_startproc
	pushq	%rbp
	.seh_pushreg	%rbp
	.cfi_def_cfa_offset 16
	.cfi_offset 6, -16
	movq	%rsp, %rbp
	.seh_setframe	%rbp, 0
	.cfi_def_cfa_register 6
	subq	$32, %rsp
	.seh_stackalloc	32
	.seh_endprologue
	movq	%rcx, 16(%rbp)
	.loc 9 142 30
	movq	16(%rbp), %rax
	movq	%rax, %rcx
	call	_ZSt9addressofIcEPT_RS0_
	.loc 9 142 37
	addq	$32, %rsp
	popq	%rbp
	.cfi_restore 6
	.cfi_def_cfa 7, 8
	ret
	.cfi_endproc
.LFE2458:
	.seh_endproc
	.section	.text$_ZSt9addressofIcEPT_RS0_,"x"
	.linkonce discard
	.globl	_ZSt9addressofIcEPT_RS0_
	.def	_ZSt9addressofIcEPT_RS0_;	.scl	2;	.type	32;	.endef
	.seh_proc	_ZSt9addressofIcEPT_RS0_
_ZSt9addressofIcEPT_RS0_:
.LFB2459:
	.file 10 "D:/Program Files/JetBrains/CLion 2024.2.3/bin/mingw/lib/gcc/x86_64-w64-mingw32/13.1.0/include/c++/bits/move.h"
	.loc 10 145 5
	.cfi_startproc
	pushq	%rbp
	.seh_pushreg	%rbp
	.cfi_def_cfa_offset 16
	.cfi_offset 6, -16
	movq	%rsp, %rbp
	.seh_setframe	%rbp, 0
	.cfi_def_cfa_register 6
	subq	$32, %rsp
	.seh_stackalloc	32
	.seh_endprologue
	movq	%rcx, 16(%rbp)
	.loc 10 146 30
	movq	16(%rbp), %rax
	movq	%rax, %rcx
	call	_ZSt11__addressofIcEPT_RS0_
	.loc 10 146 37
	addq	$32, %rsp
	popq	%rbp
	.cfi_restore 6
	.cfi_def_cfa 7, 8
	ret
	.cfi_endproc
.LFE2459:
	.seh_endproc
	.section	.text$_ZSt11__addressofIcEPT_RS0_,"x"
	.linkonce discard
	.globl	_ZSt11__addressofIcEPT_RS0_
	.def	_ZSt11__addressofIcEPT_RS0_;	.scl	2;	.type	32;	.endef
	.seh_proc	_ZSt11__addressofIcEPT_RS0_
_ZSt11__addressofIcEPT_RS0_:
.LFB2460:
	.loc 10 49 5
	.cfi_startproc
	pushq	%rbp
	.seh_pushreg	%rbp
	.cfi_def_cfa_offset 16
	.cfi_offset 6, -16
	movq	%rsp, %rbp
	.seh_setframe	%rbp, 0
	.cfi_def_cfa_register 6
	.seh_endprologue
	movq	%rcx, 16(%rbp)
	.loc 10 50 37
	movq	16(%rbp), %rax
	.loc 10 50 40
	popq	%rbp
	.cfi_restore 6
	.cfi_def_cfa 7, 8
	ret
	.cfi_endproc
.LFE2460:
	.seh_endproc
	.section	.text$_ZNSt7__cxx1112basic_stringIcSt11char_traitsIcESaIcEE12_Alloc_hiderC1EPcOS3_,"x"
	.linkonce discard
	.align 2
	.globl	_ZNSt7__cxx1112basic_stringIcSt11char_traitsIcESaIcEE12_Alloc_hiderC1EPcOS3_
	.def	_ZNSt7__cxx1112basic_stringIcSt11char_traitsIcESaIcEE12_Alloc_hiderC1EPcOS3_;	.scl	2;	.type	32;	.endef
	.seh_proc	_ZNSt7__cxx1112basic_stringIcSt11char_traitsIcESaIcEE12_Alloc_hiderC1EPcOS3_
_ZNSt7__cxx1112basic_stringIcSt11char_traitsIcESaIcEE12_Alloc_hiderC1EPcOS3_:
.LFB2469:
	.loc 5 203 2
	.cfi_startproc
	pushq	%rbp
	.seh_pushreg	%rbp
	.cfi_def_cfa_offset 16
	.cfi_offset 6, -16
	movq	%rsp, %rbp
	.seh_setframe	%rbp, 0
	.cfi_def_cfa_register 6
	subq	$64, %rsp
	.seh_stackalloc	64
	.seh_endprologue
	movq	%rcx, 16(%rbp)
	movq	%rdx, 24(%rbp)
	movq	%r8, 32(%rbp)
.LBB140:
	.loc 5 204 28
	movq	32(%rbp), %rax
	movq	%rax, %rcx
	call	_ZSt4moveIRSaIcEEONSt16remove_referenceIT_E4typeEOS3_
	movq	16(%rbp), %rdx
	movq	%rdx, -8(%rbp)
	movq	%rax, -16(%rbp)
	movq	-8(%rbp), %rax
	movq	%rax, -24(%rbp)
	movq	-16(%rbp), %rax
	movq	%rax, -32(%rbp)
.LBB141:
.LBB142:
.LBB143:
.LBB144:
.LBB145:
	.loc 8 92 58
	nop
.LBE145:
.LBE144:
.LBE143:
	.loc 7 168 38
	nop
.LBE142:
.LBE141:
	.loc 5 204 36 discriminator 2
	movq	16(%rbp), %rax
	movq	24(%rbp), %rdx
	movq	%rdx, (%rax)
.LBE140:
	.loc 5 204 50
	nop
	addq	$64, %rsp
	popq	%rbp
	.cfi_restore 6
	.cfi_def_cfa 7, 8
	ret
	.cfi_endproc
.LFE2469:
	.seh_endproc
	.section	.text$_ZSt4moveIRSaIcEEONSt16remove_referenceIT_E4typeEOS3_,"x"
	.linkonce discard
	.globl	_ZSt4moveIRSaIcEEONSt16remove_referenceIT_E4typeEOS3_
	.def	_ZSt4moveIRSaIcEEONSt16remove_referenceIT_E4typeEOS3_;	.scl	2;	.type	32;	.endef
	.seh_proc	_ZSt4moveIRSaIcEEONSt16remove_referenceIT_E4typeEOS3_
_ZSt4moveIRSaIcEEONSt16remove_referenceIT_E4typeEOS3_:
.LFB2470:
	.loc 10 104 5
	.cfi_startproc
	pushq	%rbp
	.seh_pushreg	%rbp
	.cfi_def_cfa_offset 16
	.cfi_offset 6, -16
	movq	%rsp, %rbp
	.seh_setframe	%rbp, 0
	.cfi_def_cfa_register 6
	.seh_endprologue
	movq	%rcx, 16(%rbp)
	.loc 10 105 74
	movq	16(%rbp), %rax
	.loc 10 105 77
	popq	%rbp
	.cfi_restore 6
	.cfi_def_cfa 7, 8
	ret
	.cfi_endproc
.LFE2470:
	.seh_endproc
	.section	.text$_ZN7StudentD1Ev,"x"
	.linkonce discard
	.align 2
	.globl	_ZN7StudentD1Ev
	.def	_ZN7StudentD1Ev;	.scl	2;	.type	32;	.endef
	.seh_proc	_ZN7StudentD1Ev
_ZN7StudentD1Ev:
.LFB2483:
	.loc 6 10 7
	.cfi_startproc
	pushq	%rbp
	.seh_pushreg	%rbp
	.cfi_def_cfa_offset 16
	.cfi_offset 6, -16
	movq	%rsp, %rbp
	.seh_setframe	%rbp, 0
	.cfi_def_cfa_register 6
	subq	$32, %rsp
	.seh_stackalloc	32
	.seh_endprologue
	movq	%rcx, 16(%rbp)
.LBB146:
	.loc 6 10 7
	movq	16(%rbp), %rax
	movq	%rax, %rcx
	call	_ZNSt7__cxx1112basic_stringIcSt11char_traitsIcESaIcEED1Ev
.LBE146:
	nop
	addq	$32, %rsp
	popq	%rbp
	.cfi_restore 6
	.cfi_def_cfa 7, 8
	ret
	.cfi_endproc
.LFE2483:
	.seh_endproc
	.section .rdata,"dr"
.LC2:
	.ascii "\345\274\240\344\270\211\0"
	.text
	.globl	_Z6main11v
	.def	_Z6main11v;	.scl	2;	.type	32;	.endef
	.seh_proc	_Z6main11v
_Z6main11v:
.LFB2446:
	.loc 6 29 14
	.cfi_startproc
	pushq	%rbp
	.seh_pushreg	%rbp
	.cfi_def_cfa_offset 16
	.cfi_offset 6, -16
	pushq	%rbx
	.seh_pushreg	%rbx
	.cfi_def_cfa_offset 24
	.cfi_offset 3, -24
	subq	$136, %rsp
	.seh_stackalloc	136
	.cfi_def_cfa_offset 160
	leaq	128(%rsp), %rbp
	.seh_setframe	%rbp, 128
	.cfi_def_cfa 6, 32
	.seh_endprologue
	.loc 6 31 13
	leaq	-96(%rbp), %rax
	movq	%rax, %rcx
	call	_ZN7StudentC1Ev
	leaq	-9(%rbp), %rax
	movq	%rax, -8(%rbp)
.LBB147:
.LBB148:
.LBB149:
.LBB150:
.LBB151:
	.loc 8 88 36
	nop
.LBE151:
.LBE150:
.LBE149:
	.loc 7 163 30
	nop
.LBE148:
.LBE147:
	.loc 6 33 15 discriminator 1
	leaq	-9(%rbp), %rdx
	leaq	-48(%rbp), %rax
	movq	%rdx, %r8
	leaq	.LC2(%rip), %rdx
	movq	%rax, %rcx
.LEHB0:
	call	_ZNSt7__cxx1112basic_stringIcSt11char_traitsIcESaIcEEC1IS3_EEPKcRKS3_
.LEHE0:
	.loc 6 33 15 is_stmt 0 discriminator 2
	leaq	-48(%rbp), %rdx
	leaq	-96(%rbp), %rax
	movq	%rax, %rcx
.LEHB1:
	call	_ZN7Student7setNameENSt7__cxx1112basic_stringIcSt11char_traitsIcESaIcEEE
.LEHE1:
	.loc 6 33 15 discriminator 4
	leaq	-48(%rbp), %rax
	movq	%rax, %rcx
	call	_ZNSt7__cxx1112basic_stringIcSt11char_traitsIcESaIcEED1Ev
.LBB152:
.LBB153:
	.loc 7 184 31 is_stmt 1
	nop
.LBE153:
.LBE152:
	.loc 6 34 13
	leaq	-96(%rbp), %rax
	movl	$1, %edx
	movq	%rax, %rcx
	call	_ZN7Student5setIdEi
	.loc 6 35 19
	leaq	-96(%rbp), %rax
	movq	%rax, %rcx
.LEHB2:
	call	_ZN7Student11showStudentEv
.LEHE2:
	.loc 6 37 12
	movl	$0, %ebx
	.loc 6 38 1
	leaq	-96(%rbp), %rax
	movq	%rax, %rcx
	call	_ZN7StudentD1Ev
	.loc 6 37 12
	movl	%ebx, %eax
	jmp	.L51
.L48:
	.loc 6 33 15 discriminator 3
	movq	%rax, %rbx
	leaq	-48(%rbp), %rax
	movq	%rax, %rcx
	call	_ZNSt7__cxx1112basic_stringIcSt11char_traitsIcESaIcEED1Ev
	movq	%rbx, %rax
.LBB154:
.LBB155:
	.loc 7 184 31
	jmp	.L52
.L47:
.L52:
	nop
	movq	%rax, %rbx
	jmp	.L46
.L49:
.LBE155:
.LBE154:
	.loc 6 38 1
	movq	%rax, %rbx
.L46:
	leaq	-96(%rbp), %rax
	movq	%rax, %rcx
	call	_ZN7StudentD1Ev
	movq	%rbx, %rax
	movq	%rax, %rcx
.LEHB3:
	call	_Unwind_Resume
.LEHE3:
.L51:
	addq	$136, %rsp
	popq	%rbx
	.cfi_restore 3
	popq	%rbp
	.cfi_restore 6
	.cfi_def_cfa 7, -120
	ret
	.cfi_endproc
.LFE2446:
	.seh_handler	__gxx_personality_seh0, @unwind, @except
	.seh_handlerdata
.LLSDA2446:
	.byte	0xff
	.byte	0xff
	.byte	0x1
	.uleb128 .LLSDACSE2446-.LLSDACSB2446
.LLSDACSB2446:
	.uleb128 .LEHB0-.LFB2446
	.uleb128 .LEHE0-.LEHB0
	.uleb128 .L47-.LFB2446
	.uleb128 0
	.uleb128 .LEHB1-.LFB2446
	.uleb128 .LEHE1-.LEHB1
	.uleb128 .L48-.LFB2446
	.uleb128 0
	.uleb128 .LEHB2-.LFB2446
	.uleb128 .LEHE2-.LEHB2
	.uleb128 .L49-.LFB2446
	.uleb128 0
	.uleb128 .LEHB3-.LFB2446
	.uleb128 .LEHE3-.LEHB3
	.uleb128 0
	.uleb128 0
.LLSDACSE2446:
	.text
	.seh_endproc
	.section	.text$_ZSt12construct_atIcJRKcEEDTgsnwcvPvLi0E_T_pispcl7declvalIT0_EEEEPS3_DpOS4_,"x"
	.linkonce discard
	.globl	_ZSt12construct_atIcJRKcEEDTgsnwcvPvLi0E_T_pispcl7declvalIT0_EEEEPS3_DpOS4_
	.def	_ZSt12construct_atIcJRKcEEDTgsnwcvPvLi0E_T_pispcl7declvalIT0_EEEEPS3_DpOS4_;	.scl	2;	.type	32;	.endef
	.seh_proc	_ZSt12construct_atIcJRKcEEDTgsnwcvPvLi0E_T_pispcl7declvalIT0_EEEEPS3_DpOS4_
_ZSt12construct_atIcJRKcEEDTgsnwcvPvLi0E_T_pispcl7declvalIT0_EEEEPS3_DpOS4_:
.LFB2484:
	.file 11 "D:/Program Files/JetBrains/CLion 2024.2.3/bin/mingw/lib/gcc/x86_64-w64-mingw32/13.1.0/include/c++/bits/stl_construct.h"
	.loc 11 94 5
	.cfi_startproc
	pushq	%rbp
	.seh_pushreg	%rbp
	.cfi_def_cfa_offset 16
	.cfi_offset 6, -16
	pushq	%rbx
	.seh_pushreg	%rbx
	.cfi_def_cfa_offset 24
	.cfi_offset 3, -24
	subq	$40, %rsp
	.seh_stackalloc	40
	.cfi_def_cfa_offset 64
	leaq	32(%rsp), %rbp
	.seh_setframe	%rbp, 32
	.cfi_def_cfa 6, 32
	.seh_endprologue
	movq	%rcx, 32(%rbp)
	movq	%rdx, 40(%rbp)
	.loc 11 97 20
	movq	32(%rbp), %rax
	.loc 11 97 14
	movq	%rax, %rdx
	movl	$1, %ecx
	call	_ZnwyPv
	movq	%rax, %rbx
	.loc 11 97 62 discriminator 1
	movq	40(%rbp), %rax
	movq	%rax, %rcx
	call	_ZSt7forwardIRKcEOT_RNSt16remove_referenceIS2_E4typeE
	.loc 11 97 14 discriminator 2
	movzbl	(%rax), %eax
	movb	%al, (%rbx)
	.loc 11 97 73 discriminator 1
	movq	%rbx, %rax
	.loc 11 97 76
	addq	$40, %rsp
	popq	%rbx
	.cfi_restore 3
	popq	%rbp
	.cfi_restore 6
	.cfi_def_cfa 7, -24
	ret
	.cfi_endproc
.LFE2484:
	.seh_endproc
	.section	.text$_ZN9__gnu_cxx11char_traitsIcE6lengthEPKc,"x"
	.linkonce discard
	.align 2
	.globl	_ZN9__gnu_cxx11char_traitsIcE6lengthEPKc
	.def	_ZN9__gnu_cxx11char_traitsIcE6lengthEPKc;	.scl	2;	.type	32;	.endef
	.seh_proc	_ZN9__gnu_cxx11char_traitsIcE6lengthEPKc
_ZN9__gnu_cxx11char_traitsIcE6lengthEPKc:
.LFB2485:
	.loc 4 199 5
	.cfi_startproc
	pushq	%rbp
	.seh_pushreg	%rbp
	.cfi_def_cfa_offset 16
	.cfi_offset 6, -16
	movq	%rsp, %rbp
	.seh_setframe	%rbp, 0
	.cfi_def_cfa_register 6
	subq	$48, %rsp
	.seh_stackalloc	48
	.seh_endprologue
	movq	%rcx, 16(%rbp)
	.loc 4 202 19
	movq	$0, -8(%rbp)
	.loc 4 203 7
	jmp	.L56
.L57:
	.loc 4 204 9
	addq	$1, -8(%rbp)
.L56:
	.loc 4 203 17
	movb	$0, -9(%rbp)
	.loc 4 203 21
	movq	16(%rbp), %rdx
	movq	-8(%rbp), %rax
	leaq	(%rdx,%rax), %rcx
	.loc 4 203 17
	leaq	-9(%rbp), %rax
	movq	%rax, %rdx
	call	_ZN9__gnu_cxx11char_traitsIcE2eqERKcS3_
	.loc 4 203 17 is_stmt 0 discriminator 1
	xorl	$1, %eax
	testb	%al, %al
	jne	.L57
	.loc 4 205 14 is_stmt 1
	movq	-8(%rbp), %rax
	.loc 4 206 5
	addq	$48, %rsp
	popq	%rbp
	.cfi_restore 6
	.cfi_def_cfa 7, 8
	ret
	.cfi_endproc
.LFE2485:
	.seh_endproc
	.section	.text$_ZN9__gnu_cxx11char_traitsIcE4copyEPcPKcy,"x"
	.linkonce discard
	.align 2
	.globl	_ZN9__gnu_cxx11char_traitsIcE4copyEPcPKcy
	.def	_ZN9__gnu_cxx11char_traitsIcE4copyEPcPKcy;	.scl	2;	.type	32;	.endef
	.seh_proc	_ZN9__gnu_cxx11char_traitsIcE4copyEPcPKcy
_ZN9__gnu_cxx11char_traitsIcE4copyEPcPKcy:
.LFB2488:
	.loc 4 263 5
	.cfi_startproc
	pushq	%rbp
	.seh_pushreg	%rbp
	.cfi_def_cfa_offset 16
	.cfi_offset 6, -16
	movq	%rsp, %rbp
	.seh_setframe	%rbp, 0
	.cfi_def_cfa_register 6
	subq	$48, %rsp
	.seh_stackalloc	48
	.seh_endprologue
	movq	%rcx, 16(%rbp)
	movq	%rdx, 24(%rbp)
	movq	%r8, 32(%rbp)
	.loc 4 266 7
	cmpq	$0, 32(%rbp)
	jne	.L60
	.loc 4 267 9
	movq	16(%rbp), %rax
	jmp	.L61
.L60:
.LBB156:
	.loc 4 269 39
	call	_ZSt23__is_constant_evaluatedv
	.loc 4 269 7 discriminator 1
	testb	%al, %al
	je	.L62
.LBB157:
.LBB158:
	.loc 4 271 21
	movq	$0, -8(%rbp)
	.loc 4 271 4
	jmp	.L63
.L64:
	.loc 4 272 40
	movq	24(%rbp), %rdx
	movq	-8(%rbp), %rax
	addq	%rax, %rdx
	.loc 4 272 23
	movq	16(%rbp), %rcx
	movq	-8(%rbp), %rax
	addq	%rcx, %rax
	movq	%rax, %rcx
	call	_ZSt12construct_atIcJRKcEEDTgsnwcvPvLi0E_T_pispcl7declvalIT0_EEEEPS3_DpOS4_
	.loc 4 271 4 discriminator 3
	addq	$1, -8(%rbp)
.L63:
	.loc 4 271 34 discriminator 1
	movq	-8(%rbp), %rax
	cmpq	32(%rbp), %rax
	jb	.L64
.LBE158:
	.loc 4 273 11
	movq	16(%rbp), %rax
	jmp	.L61
.L62:
.LBE157:
.LBE156:
	.loc 4 276 23
	movq	16(%rbp), %rdx
	movq	24(%rbp), %rax
	movq	%rdx, %rcx
	movq	%rax, %rdx
	movq	32(%rbp), %rax
	movq	%rax, %r8
	call	memcpy
	.loc 4 277 14
	movq	16(%rbp), %rax
.L61:
	.loc 4 278 5
	addq	$48, %rsp
	popq	%rbp
	.cfi_restore 6
	.cfi_def_cfa 7, 8
	ret
	.cfi_endproc
.LFE2488:
	.seh_endproc
	.section	.text$_ZNSt7__cxx1112basic_stringIcSt11char_traitsIcESaIcEED1Ev,"x"
	.linkonce discard
	.align 2
	.globl	_ZNSt7__cxx1112basic_stringIcSt11char_traitsIcESaIcEED1Ev
	.def	_ZNSt7__cxx1112basic_stringIcSt11char_traitsIcESaIcEED1Ev;	.scl	2;	.type	32;	.endef
	.seh_proc	_ZNSt7__cxx1112basic_stringIcSt11char_traitsIcESaIcEED1Ev
_ZNSt7__cxx1112basic_stringIcSt11char_traitsIcESaIcEED1Ev:
.LFB2622:
	.loc 5 802 7
	.cfi_startproc
	pushq	%rbp
	.seh_pushreg	%rbp
	.cfi_def_cfa_offset 16
	.cfi_offset 6, -16
	movq	%rsp, %rbp
	.seh_setframe	%rbp, 0
	.cfi_def_cfa_register 6
	subq	$32, %rsp
	.seh_stackalloc	32
	.seh_endprologue
	movq	%rcx, 16(%rbp)
.LBB159:
	.loc 5 803 19
	movq	16(%rbp), %rax
	movq	%rax, %rcx
	call	_ZNSt7__cxx1112basic_stringIcSt11char_traitsIcESaIcEE10_M_disposeEv
	.loc 5 803 23 discriminator 1
	movq	16(%rbp), %rax
	movq	%rax, %rcx
	call	_ZNSt7__cxx1112basic_stringIcSt11char_traitsIcESaIcEE12_Alloc_hiderD1Ev
.LBE159:
	.loc 5 803 23 is_stmt 0
	nop
	addq	$32, %rsp
	popq	%rbp
	.cfi_restore 6
	.cfi_def_cfa 7, 8
	ret
	.cfi_endproc
.LFE2622:
	.seh_handler	__gxx_personality_seh0, @unwind, @except
	.seh_handlerdata
.LLSDA2622:
	.byte	0xff
	.byte	0xff
	.byte	0x1
	.uleb128 .LLSDACSE2622-.LLSDACSB2622
.LLSDACSB2622:
.LLSDACSE2622:
	.section	.text$_ZNSt7__cxx1112basic_stringIcSt11char_traitsIcESaIcEED1Ev,"x"
	.linkonce discard
	.seh_endproc
	.section	.text$_ZNSt7__cxx1112basic_stringIcSt11char_traitsIcESaIcEEaSERKS4_,"x"
	.linkonce discard
	.align 2
	.globl	_ZNSt7__cxx1112basic_stringIcSt11char_traitsIcESaIcEEaSERKS4_
	.def	_ZNSt7__cxx1112basic_stringIcSt11char_traitsIcESaIcEEaSERKS4_;	.scl	2;	.type	32;	.endef
	.seh_proc	_ZNSt7__cxx1112basic_stringIcSt11char_traitsIcESaIcEEaSERKS4_
_ZNSt7__cxx1112basic_stringIcSt11char_traitsIcESaIcEEaSERKS4_:
.LFB2779:
	.loc 5 811 7 is_stmt 1
	.cfi_startproc
	pushq	%rbp
	.seh_pushreg	%rbp
	.cfi_def_cfa_offset 16
	.cfi_offset 6, -16
	movq	%rsp, %rbp
	.seh_setframe	%rbp, 0
	.cfi_def_cfa_register 6
	subq	$32, %rsp
	.seh_stackalloc	32
	.seh_endprologue
	movq	%rcx, 16(%rbp)
	movq	%rdx, 24(%rbp)
	.loc 5 813 21
	movq	24(%rbp), %rdx
	movq	16(%rbp), %rax
	movq	%rax, %rcx
	call	_ZNSt7__cxx1112basic_stringIcSt11char_traitsIcESaIcEE6assignERKS4_
	.loc 5 814 7
	addq	$32, %rsp
	popq	%rbp
	.cfi_restore 6
	.cfi_def_cfa 7, 8
	ret
	.cfi_endproc
.LFE2779:
	.seh_endproc
	.section	.text$_ZNSt7__cxx1112basic_stringIcSt11char_traitsIcESaIcEE13_M_set_lengthEy,"x"
	.linkonce discard
	.align 2
	.globl	_ZNSt7__cxx1112basic_stringIcSt11char_traitsIcESaIcEE13_M_set_lengthEy
	.def	_ZNSt7__cxx1112basic_stringIcSt11char_traitsIcESaIcEE13_M_set_lengthEy;	.scl	2;	.type	32;	.endef
	.seh_proc	_ZNSt7__cxx1112basic_stringIcSt11char_traitsIcESaIcEE13_M_set_lengthEy
_ZNSt7__cxx1112basic_stringIcSt11char_traitsIcESaIcEE13_M_set_lengthEy:
.LFB2780:
	.loc 5 265 7
	.cfi_startproc
	pushq	%rbp
	.seh_pushreg	%rbp
	.cfi_def_cfa_offset 16
	.cfi_offset 6, -16
	movq	%rsp, %rbp
	.seh_setframe	%rbp, 0
	.cfi_def_cfa_register 6
	subq	$48, %rsp
	.seh_stackalloc	48
	.seh_endprologue
	movq	%rcx, 16(%rbp)
	movq	%rdx, 24(%rbp)
	.loc 5 267 11
	movq	24(%rbp), %rdx
	movq	16(%rbp), %rax
	movq	%rax, %rcx
	call	_ZNSt7__cxx1112basic_stringIcSt11char_traitsIcESaIcEE9_M_lengthEy
	.loc 5 268 21
	movb	$0, -1(%rbp)
	.loc 5 268 29
	movq	16(%rbp), %rax
	movq	%rax, %rcx
	call	_ZNKSt7__cxx1112basic_stringIcSt11char_traitsIcESaIcEE7_M_dataEv
	.loc 5 268 31 discriminator 1
	movq	24(%rbp), %rdx
	leaq	(%rax,%rdx), %rcx
	.loc 5 268 21 discriminator 1
	leaq	-1(%rbp), %rax
	movq	%rax, %rdx
	call	_ZNSt11char_traitsIcE6assignERcRKc
	.loc 5 269 7
	nop
	addq	$48, %rsp
	popq	%rbp
	.cfi_restore 6
	.cfi_def_cfa 7, 8
	ret
	.cfi_endproc
.LFE2780:
	.seh_endproc
	.section .rdata,"dr"
	.align 8
.LC3:
	.ascii "basic_string: construction from null is not valid\0"
	.section	.text$_ZNSt7__cxx1112basic_stringIcSt11char_traitsIcESaIcEEC1IS3_EEPKcRKS3_,"x"
	.linkonce discard
	.align 2
	.globl	_ZNSt7__cxx1112basic_stringIcSt11char_traitsIcESaIcEEC1IS3_EEPKcRKS3_
	.def	_ZNSt7__cxx1112basic_stringIcSt11char_traitsIcESaIcEEC1IS3_EEPKcRKS3_;	.scl	2;	.type	32;	.endef
	.seh_proc	_ZNSt7__cxx1112basic_stringIcSt11char_traitsIcESaIcEEC1IS3_EEPKcRKS3_
_ZNSt7__cxx1112basic_stringIcSt11char_traitsIcESaIcEEC1IS3_EEPKcRKS3_:
.LFB2783:
	.loc 5 642 7
	.cfi_startproc
	pushq	%rbp
	.seh_pushreg	%rbp
	.cfi_def_cfa_offset 16
	.cfi_offset 6, -16
	pushq	%rsi
	.seh_pushreg	%rsi
	.cfi_def_cfa_offset 24
	.cfi_offset 4, -24
	pushq	%rbx
	.seh_pushreg	%rbx
	.cfi_def_cfa_offset 32
	.cfi_offset 3, -32
	subq	$48, %rsp
	.seh_stackalloc	48
	.cfi_def_cfa_offset 80
	leaq	48(%rsp), %rbp
	.seh_setframe	%rbp, 48
	.cfi_def_cfa 6, 32
	.seh_endprologue
	movq	%rcx, 32(%rbp)
	movq	%rdx, 40(%rbp)
	movq	%r8, 48(%rbp)
.LBB160:
	.loc 5 643 9
	movq	32(%rbp), %rbx
	movq	32(%rbp), %rax
	movq	%rax, %rcx
	call	_ZNSt7__cxx1112basic_stringIcSt11char_traitsIcESaIcEE13_M_local_dataEv
	.loc 5 643 9 is_stmt 0 discriminator 1
	movq	48(%rbp), %rdx
	movq	%rdx, %r8
	movq	%rax, %rdx
	movq	%rbx, %rcx
	call	_ZNSt7__cxx1112basic_stringIcSt11char_traitsIcESaIcEE12_Alloc_hiderC1EPcRKS3_
.LBB161:
	.loc 5 646 2 is_stmt 1
	cmpq	$0, 40(%rbp)
	jne	.L70
	.loc 5 647 28
	leaq	.LC3(%rip), %rax
	movq	%rax, %rcx
.LEHB4:
	call	_ZSt19__throw_logic_errorPKc
.L70:
	.loc 5 649 49
	movq	40(%rbp), %rax
	movq	%rax, %rcx
	call	_ZNSt11char_traitsIcE6lengthEPKc
	.loc 5 649 16 discriminator 1
	movq	40(%rbp), %rdx
	addq	%rdx, %rax
	movq	%rax, -8(%rbp)
	.loc 5 650 14
	movq	-8(%rbp), %rcx
	movq	40(%rbp), %rdx
	movq	32(%rbp), %rax
	movl	%esi, %r9d
	movq	%rcx, %r8
	movq	%rax, %rcx
	call	_ZNSt7__cxx1112basic_stringIcSt11char_traitsIcESaIcEE12_M_constructIPKcEEvT_S8_St20forward_iterator_tag
.LEHE4:
.LBE161:
.LBE160:
	.loc 5 651 7
	jmp	.L73
.L72:
.LBB162:
	movq	%rax, %rbx
	movq	32(%rbp), %rax
	movq	%rax, %rcx
	call	_ZNSt7__cxx1112basic_stringIcSt11char_traitsIcESaIcEE12_Alloc_hiderD1Ev
	movq	%rbx, %rax
	movq	%rax, %rcx
.LEHB5:
	call	_Unwind_Resume
	nop
.LEHE5:
.L73:
.LBE162:
	addq	$48, %rsp
	popq	%rbx
	.cfi_restore 3
	popq	%rsi
	.cfi_restore 4
	popq	%rbp
	.cfi_restore 6
	.cfi_def_cfa 7, -24
	ret
	.cfi_endproc
.LFE2783:
	.seh_handler	__gxx_personality_seh0, @unwind, @except
	.seh_handlerdata
.LLSDA2783:
	.byte	0xff
	.byte	0xff
	.byte	0x1
	.uleb128 .LLSDACSE2783-.LLSDACSB2783
.LLSDACSB2783:
	.uleb128 .LEHB4-.LFB2783
	.uleb128 .LEHE4-.LEHB4
	.uleb128 .L72-.LFB2783
	.uleb128 0
	.uleb128 .LEHB5-.LFB2783
	.uleb128 .LEHE5-.LEHB5
	.uleb128 0
	.uleb128 0
.LLSDACSE2783:
	.section	.text$_ZNSt7__cxx1112basic_stringIcSt11char_traitsIcESaIcEEC1IS3_EEPKcRKS3_,"x"
	.linkonce discard
	.seh_endproc
	.section	.text$_ZSt7forwardIRKcEOT_RNSt16remove_referenceIS2_E4typeE,"x"
	.linkonce discard
	.globl	_ZSt7forwardIRKcEOT_RNSt16remove_referenceIS2_E4typeE
	.def	_ZSt7forwardIRKcEOT_RNSt16remove_referenceIS2_E4typeE;	.scl	2;	.type	32;	.endef
	.seh_proc	_ZSt7forwardIRKcEOT_RNSt16remove_referenceIS2_E4typeE
_ZSt7forwardIRKcEOT_RNSt16remove_referenceIS2_E4typeE:
.LFB2784:
	.loc 10 77 5
	.cfi_startproc
	pushq	%rbp
	.seh_pushreg	%rbp
	.cfi_def_cfa_offset 16
	.cfi_offset 6, -16
	movq	%rsp, %rbp
	.seh_setframe	%rbp, 0
	.cfi_def_cfa_register 6
	.seh_endprologue
	movq	%rcx, 16(%rbp)
	.loc 10 78 36
	movq	16(%rbp), %rax
	.loc 10 78 39
	popq	%rbp
	.cfi_restore 6
	.cfi_def_cfa 7, 8
	ret
	.cfi_endproc
.LFE2784:
	.seh_endproc
	.section	.text$_ZN9__gnu_cxx11char_traitsIcE2eqERKcS3_,"x"
	.linkonce discard
	.globl	_ZN9__gnu_cxx11char_traitsIcE2eqERKcS3_
	.def	_ZN9__gnu_cxx11char_traitsIcE2eqERKcS3_;	.scl	2;	.type	32;	.endef
	.seh_proc	_ZN9__gnu_cxx11char_traitsIcE2eqERKcS3_
_ZN9__gnu_cxx11char_traitsIcE2eqERKcS3_:
.LFB2785:
	.loc 4 136 7
	.cfi_startproc
	pushq	%rbp
	.seh_pushreg	%rbp
	.cfi_def_cfa_offset 16
	.cfi_offset 6, -16
	movq	%rsp, %rbp
	.seh_setframe	%rbp, 0
	.cfi_def_cfa_register 6
	.seh_endprologue
	movq	%rcx, 16(%rbp)
	movq	%rdx, 24(%rbp)
	.loc 4 137 21
	movq	16(%rbp), %rax
	movzbl	(%rax), %edx
	movq	24(%rbp), %rax
	movzbl	(%rax), %eax
	.loc 4 137 24
	cmpb	%al, %dl
	sete	%al
	.loc 4 137 30
	popq	%rbp
	.cfi_restore 6
	.cfi_def_cfa 7, 8
	ret
	.cfi_endproc
.LFE2785:
	.seh_endproc
	.section	.text$_ZNKSt7__cxx1112basic_stringIcSt11char_traitsIcESaIcEE7_M_dataEv,"x"
	.linkonce discard
	.align 2
	.globl	_ZNKSt7__cxx1112basic_stringIcSt11char_traitsIcESaIcEE7_M_dataEv
	.def	_ZNKSt7__cxx1112basic_stringIcSt11char_traitsIcESaIcEE7_M_dataEv;	.scl	2;	.type	32;	.endef
	.seh_proc	_ZNKSt7__cxx1112basic_stringIcSt11char_traitsIcESaIcEE7_M_dataEv
_ZNKSt7__cxx1112basic_stringIcSt11char_traitsIcESaIcEE7_M_dataEv:
.LFB2802:
	.loc 5 233 7
	.cfi_startproc
	pushq	%rbp
	.seh_pushreg	%rbp
	.cfi_def_cfa_offset 16
	.cfi_offset 6, -16
	movq	%rsp, %rbp
	.seh_setframe	%rbp, 0
	.cfi_def_cfa_register 6
	.seh_endprologue
	movq	%rcx, 16(%rbp)
	.loc 5 234 28
	movq	16(%rbp), %rax
	movq	(%rax), %rax
	.loc 5 234 34
	popq	%rbp
	.cfi_restore 6
	.cfi_def_cfa 7, 8
	ret
	.cfi_endproc
.LFE2802:
	.seh_endproc
	.section	.text$_ZNSt7__cxx1112basic_stringIcSt11char_traitsIcESaIcEE12_Alloc_hiderC1EPcRKS3_,"x"
	.linkonce discard
	.align 2
	.globl	_ZNSt7__cxx1112basic_stringIcSt11char_traitsIcESaIcEE12_Alloc_hiderC1EPcRKS3_
	.def	_ZNSt7__cxx1112basic_stringIcSt11char_traitsIcESaIcEE12_Alloc_hiderC1EPcRKS3_;	.scl	2;	.type	32;	.endef
	.seh_proc	_ZNSt7__cxx1112basic_stringIcSt11char_traitsIcESaIcEE12_Alloc_hiderC1EPcRKS3_
_ZNSt7__cxx1112basic_stringIcSt11char_traitsIcESaIcEE12_Alloc_hiderC1EPcRKS3_:
.LFB2805:
	.loc 5 199 2
	.cfi_startproc
	pushq	%rbp
	.seh_pushreg	%rbp
	.cfi_def_cfa_offset 16
	.cfi_offset 6, -16
	movq	%rsp, %rbp
	.seh_setframe	%rbp, 0
	.cfi_def_cfa_register 6
	subq	$32, %rsp
	.seh_stackalloc	32
	.seh_endprologue
	movq	%rcx, 16(%rbp)
	movq	%rdx, 24(%rbp)
	movq	%r8, 32(%rbp)
	movq	16(%rbp), %rax
	movq	%rax, -8(%rbp)
	movq	32(%rbp), %rax
	movq	%rax, -16(%rbp)
	movq	-8(%rbp), %rax
	movq	%rax, -24(%rbp)
	movq	-16(%rbp), %rax
	movq	%rax, -32(%rbp)
.LBB163:
.LBB164:
.LBB165:
.LBB166:
.LBB167:
.LBB168:
	.loc 8 92 58
	nop
.LBE168:
.LBE167:
.LBE166:
	.loc 7 168 38
	nop
.LBE165:
.LBE164:
	.loc 5 200 25 discriminator 1
	movq	16(%rbp), %rax
	movq	24(%rbp), %rdx
	movq	%rdx, (%rax)
.LBE163:
	.loc 5 200 39
	nop
	addq	$32, %rsp
	popq	%rbp
	.cfi_restore 6
	.cfi_def_cfa 7, 8
	ret
	.cfi_endproc
.LFE2805:
	.seh_endproc
	.section	.text$_ZNSt7__cxx1112basic_stringIcSt11char_traitsIcESaIcEE10_M_disposeEv,"x"
	.linkonce discard
	.align 2
	.globl	_ZNSt7__cxx1112basic_stringIcSt11char_traitsIcESaIcEE10_M_disposeEv
	.def	_ZNSt7__cxx1112basic_stringIcSt11char_traitsIcESaIcEE10_M_disposeEv;	.scl	2;	.type	32;	.endef
	.seh_proc	_ZNSt7__cxx1112basic_stringIcSt11char_traitsIcESaIcEE10_M_disposeEv
_ZNSt7__cxx1112basic_stringIcSt11char_traitsIcESaIcEE10_M_disposeEv:
.LFB2807:
	.loc 5 291 7
	.cfi_startproc
	pushq	%rbp
	.seh_pushreg	%rbp
	.cfi_def_cfa_offset 16
	.cfi_offset 6, -16
	movq	%rsp, %rbp
	.seh_setframe	%rbp, 0
	.cfi_def_cfa_register 6
	subq	$32, %rsp
	.seh_stackalloc	32
	.seh_endprologue
	movq	%rcx, 16(%rbp)
	.loc 5 293 18
	movq	16(%rbp), %rax
	movq	%rax, %rcx
	call	_ZNKSt7__cxx1112basic_stringIcSt11char_traitsIcESaIcEE11_M_is_localEv
	.loc 5 293 18 is_stmt 0 discriminator 1
	xorl	$1, %eax
	.loc 5 293 2 is_stmt 1 discriminator 1
	testb	%al, %al
	je	.L83
	.loc 5 294 14
	movq	16(%rbp), %rax
	movq	16(%rax), %rdx
	movq	16(%rbp), %rax
	movq	%rax, %rcx
	call	_ZNSt7__cxx1112basic_stringIcSt11char_traitsIcESaIcEE10_M_destroyEy
.L83:
	.loc 5 295 7
	nop
	addq	$32, %rsp
	popq	%rbp
	.cfi_restore 6
	.cfi_def_cfa 7, 8
	ret
	.cfi_endproc
.LFE2807:
	.seh_endproc
	.section	.text$_ZNSt7__cxx1112basic_stringIcSt11char_traitsIcESaIcEE16_M_get_allocatorEv,"x"
	.linkonce discard
	.align 2
	.globl	_ZNSt7__cxx1112basic_stringIcSt11char_traitsIcESaIcEE16_M_get_allocatorEv
	.def	_ZNSt7__cxx1112basic_stringIcSt11char_traitsIcESaIcEE16_M_get_allocatorEv;	.scl	2;	.type	32;	.endef
	.seh_proc	_ZNSt7__cxx1112basic_stringIcSt11char_traitsIcESaIcEE16_M_get_allocatorEv
_ZNSt7__cxx1112basic_stringIcSt11char_traitsIcESaIcEE16_M_get_allocatorEv:
.LFB2808:
	.loc 5 347 7
	.cfi_startproc
	pushq	%rbp
	.seh_pushreg	%rbp
	.cfi_def_cfa_offset 16
	.cfi_offset 6, -16
	movq	%rsp, %rbp
	.seh_setframe	%rbp, 0
	.cfi_def_cfa_register 6
	.seh_endprologue
	movq	%rcx, 16(%rbp)
	.loc 5 348 16
	movq	16(%rbp), %rax
	.loc 5 348 29
	popq	%rbp
	.cfi_restore 6
	.cfi_def_cfa 7, 8
	ret
	.cfi_endproc
.LFE2808:
	.seh_endproc
	.section	.text$_ZNKSt7__cxx1112basic_stringIcSt11char_traitsIcESaIcEE11_M_is_localEv,"x"
	.linkonce discard
	.align 2
	.globl	_ZNKSt7__cxx1112basic_stringIcSt11char_traitsIcESaIcEE11_M_is_localEv
	.def	_ZNKSt7__cxx1112basic_stringIcSt11char_traitsIcESaIcEE11_M_is_localEv;	.scl	2;	.type	32;	.endef
	.seh_proc	_ZNKSt7__cxx1112basic_stringIcSt11char_traitsIcESaIcEE11_M_is_localEv
_ZNKSt7__cxx1112basic_stringIcSt11char_traitsIcESaIcEE11_M_is_localEv:
.LFB2809:
	.loc 5 273 7
	.cfi_startproc
	pushq	%rbp
	.seh_pushreg	%rbp
	.cfi_def_cfa_offset 16
	.cfi_offset 6, -16
	pushq	%rbx
	.seh_pushreg	%rbx
	.cfi_def_cfa_offset 24
	.cfi_offset 3, -24
	subq	$40, %rsp
	.seh_stackalloc	40
	.cfi_def_cfa_offset 64
	leaq	32(%rsp), %rbp
	.seh_setframe	%rbp, 32
	.cfi_def_cfa 6, 32
	.seh_endprologue
	movq	%rcx, 32(%rbp)
	.loc 5 275 13
	movq	32(%rbp), %rax
	movq	%rax, %rcx
	call	_ZNKSt7__cxx1112basic_stringIcSt11char_traitsIcESaIcEE7_M_dataEv
	movq	%rax, %rbx
	.loc 5 275 32 discriminator 1
	movq	32(%rbp), %rax
	movq	%rax, %rcx
	call	_ZNKSt7__cxx1112basic_stringIcSt11char_traitsIcESaIcEE13_M_local_dataEv
	.loc 5 275 16 discriminator 2
	cmpq	%rax, %rbx
	sete	%al
	.loc 5 275 2 discriminator 2
	testb	%al, %al
	je	.L87
	.loc 5 277 10
	movq	32(%rbp), %rax
	movq	8(%rax), %rax
	.loc 5 277 6
	cmpq	$15, %rax
	.loc 5 279 13
	movl	$1, %eax
	jmp	.L89
.L87:
	.loc 5 281 9
	movl	$0, %eax
.L89:
	.loc 5 282 7
	addq	$40, %rsp
	popq	%rbx
	.cfi_restore 3
	popq	%rbp
	.cfi_restore 6
	.cfi_def_cfa 7, -24
	ret
	.cfi_endproc
.LFE2809:
	.seh_endproc
	.section	.text$_ZNKSt7__cxx1112basic_stringIcSt11char_traitsIcESaIcEE6lengthEv,"x"
	.linkonce discard
	.align 2
	.globl	_ZNKSt7__cxx1112basic_stringIcSt11char_traitsIcESaIcEE6lengthEv
	.def	_ZNKSt7__cxx1112basic_stringIcSt11char_traitsIcESaIcEE6lengthEv;	.scl	2;	.type	32;	.endef
	.seh_proc	_ZNKSt7__cxx1112basic_stringIcSt11char_traitsIcESaIcEE6lengthEv
_ZNKSt7__cxx1112basic_stringIcSt11char_traitsIcESaIcEE6lengthEv:
.LFB2810:
	.loc 5 1077 7
	.cfi_startproc
	pushq	%rbp
	.seh_pushreg	%rbp
	.cfi_def_cfa_offset 16
	.cfi_offset 6, -16
	movq	%rsp, %rbp
	.seh_setframe	%rbp, 0
	.cfi_def_cfa_register 6
	.seh_endprologue
	movq	%rcx, 16(%rbp)
	.loc 5 1078 16
	movq	16(%rbp), %rax
	movq	8(%rax), %rax
	.loc 5 1078 34
	popq	%rbp
	.cfi_restore 6
	.cfi_def_cfa 7, 8
	ret
	.cfi_endproc
.LFE2810:
	.seh_endproc
	.section	.text$_ZNSt7__cxx1112basic_stringIcSt11char_traitsIcESaIcEE7_M_dataEPc,"x"
	.linkonce discard
	.align 2
	.globl	_ZNSt7__cxx1112basic_stringIcSt11char_traitsIcESaIcEE7_M_dataEPc
	.def	_ZNSt7__cxx1112basic_stringIcSt11char_traitsIcESaIcEE7_M_dataEPc;	.scl	2;	.type	32;	.endef
	.seh_proc	_ZNSt7__cxx1112basic_stringIcSt11char_traitsIcESaIcEE7_M_dataEPc
_ZNSt7__cxx1112basic_stringIcSt11char_traitsIcESaIcEE7_M_dataEPc:
.LFB2811:
	.loc 5 223 7
	.cfi_startproc
	pushq	%rbp
	.seh_pushreg	%rbp
	.cfi_def_cfa_offset 16
	.cfi_offset 6, -16
	movq	%rsp, %rbp
	.seh_setframe	%rbp, 0
	.cfi_def_cfa_register 6
	.seh_endprologue
	movq	%rcx, 16(%rbp)
	movq	%rdx, 24(%rbp)
	.loc 5 224 26
	movq	16(%rbp), %rax
	movq	24(%rbp), %rdx
	movq	%rdx, (%rax)
	.loc 5 224 33
	nop
	popq	%rbp
	.cfi_restore 6
	.cfi_def_cfa 7, 8
	ret
	.cfi_endproc
.LFE2811:
	.seh_endproc
	.section	.text$_ZNSt7__cxx1112basic_stringIcSt11char_traitsIcESaIcEE11_M_capacityEy,"x"
	.linkonce discard
	.align 2
	.globl	_ZNSt7__cxx1112basic_stringIcSt11char_traitsIcESaIcEE11_M_capacityEy
	.def	_ZNSt7__cxx1112basic_stringIcSt11char_traitsIcESaIcEE11_M_capacityEy;	.scl	2;	.type	32;	.endef
	.seh_proc	_ZNSt7__cxx1112basic_stringIcSt11char_traitsIcESaIcEE11_M_capacityEy
_ZNSt7__cxx1112basic_stringIcSt11char_traitsIcESaIcEE11_M_capacityEy:
.LFB2812:
	.loc 5 260 7
	.cfi_startproc
	pushq	%rbp
	.seh_pushreg	%rbp
	.cfi_def_cfa_offset 16
	.cfi_offset 6, -16
	movq	%rsp, %rbp
	.seh_setframe	%rbp, 0
	.cfi_def_cfa_register 6
	.seh_endprologue
	movq	%rcx, 16(%rbp)
	movq	%rdx, 24(%rbp)
	.loc 5 261 31
	movq	16(%rbp), %rax
	movq	24(%rbp), %rdx
	movq	%rdx, 16(%rax)
	.loc 5 261 45
	nop
	popq	%rbp
	.cfi_restore 6
	.cfi_def_cfa 7, 8
	ret
	.cfi_endproc
.LFE2812:
	.seh_endproc
	.section	.text$_ZNSt7__cxx1112basic_stringIcSt11char_traitsIcESaIcEE9_M_lengthEy,"x"
	.linkonce discard
	.align 2
	.globl	_ZNSt7__cxx1112basic_stringIcSt11char_traitsIcESaIcEE9_M_lengthEy
	.def	_ZNSt7__cxx1112basic_stringIcSt11char_traitsIcESaIcEE9_M_lengthEy;	.scl	2;	.type	32;	.endef
	.seh_proc	_ZNSt7__cxx1112basic_stringIcSt11char_traitsIcESaIcEE9_M_lengthEy
_ZNSt7__cxx1112basic_stringIcSt11char_traitsIcESaIcEE9_M_lengthEy:
.LFB2813:
	.loc 5 228 7
	.cfi_startproc
	pushq	%rbp
	.seh_pushreg	%rbp
	.cfi_def_cfa_offset 16
	.cfi_offset 6, -16
	movq	%rsp, %rbp
	.seh_setframe	%rbp, 0
	.cfi_def_cfa_register 6
	.seh_endprologue
	movq	%rcx, 16(%rbp)
	movq	%rdx, 24(%rbp)
	.loc 5 229 26
	movq	16(%rbp), %rax
	movq	24(%rbp), %rdx
	movq	%rdx, 8(%rax)
	.loc 5 229 38
	nop
	popq	%rbp
	.cfi_restore 6
	.cfi_def_cfa 7, 8
	ret
	.cfi_endproc
.LFE2813:
	.seh_endproc
	.section	.text$_ZZNSt7__cxx1112basic_stringIcSt11char_traitsIcESaIcEE12_M_constructIPKcEEvT_S8_St20forward_iterator_tagEN6_GuardC1EPS4_,"x"
	.linkonce discard
	.align 2
	.globl	_ZZNSt7__cxx1112basic_stringIcSt11char_traitsIcESaIcEE12_M_constructIPKcEEvT_S8_St20forward_iterator_tagEN6_GuardC1EPS4_
	.def	_ZZNSt7__cxx1112basic_stringIcSt11char_traitsIcESaIcEE12_M_constructIPKcEEvT_S8_St20forward_iterator_tagEN6_GuardC1EPS4_;	.scl	2;	.type	32;	.endef
	.seh_proc	_ZZNSt7__cxx1112basic_stringIcSt11char_traitsIcESaIcEE12_M_constructIPKcEEvT_S8_St20forward_iterator_tagEN6_GuardC1EPS4_
_ZZNSt7__cxx1112basic_stringIcSt11char_traitsIcESaIcEE12_M_constructIPKcEEvT_S8_St20forward_iterator_tagEN6_GuardC1EPS4_:
.LFB2825:
	.file 12 "D:/Program Files/JetBrains/CLion 2024.2.3/bin/mingw/lib/gcc/x86_64-w64-mingw32/13.1.0/include/c++/bits/basic_string.tcc"
	.loc 12 235 13
	.cfi_startproc
	pushq	%rbp
	.seh_pushreg	%rbp
	.cfi_def_cfa_offset 16
	.cfi_offset 6, -16
	movq	%rsp, %rbp
	.seh_setframe	%rbp, 0
	.cfi_def_cfa_register 6
	.seh_endprologue
	movq	%rcx, 16(%rbp)
	movq	%rdx, 24(%rbp)
.LBB169:
	.loc 12 235 41
	movq	16(%rbp), %rax
	movq	24(%rbp), %rdx
	movq	%rdx, (%rax)
.LBE169:
	.loc 12 235 59
	nop
	popq	%rbp
	.cfi_restore 6
	.cfi_def_cfa 7, 8
	ret
	.cfi_endproc
.LFE2825:
	.seh_endproc
	.section	.text$_ZZNSt7__cxx1112basic_stringIcSt11char_traitsIcESaIcEE12_M_constructIPKcEEvT_S8_St20forward_iterator_tagEN6_GuardD1Ev,"x"
	.linkonce discard
	.align 2
	.globl	_ZZNSt7__cxx1112basic_stringIcSt11char_traitsIcESaIcEE12_M_constructIPKcEEvT_S8_St20forward_iterator_tagEN6_GuardD1Ev
	.def	_ZZNSt7__cxx1112basic_stringIcSt11char_traitsIcESaIcEE12_M_constructIPKcEEvT_S8_St20forward_iterator_tagEN6_GuardD1Ev;	.scl	2;	.type	32;	.endef
	.seh_proc	_ZZNSt7__cxx1112basic_stringIcSt11char_traitsIcESaIcEE12_M_constructIPKcEEvT_S8_St20forward_iterator_tagEN6_GuardD1Ev
_ZZNSt7__cxx1112basic_stringIcSt11char_traitsIcESaIcEE12_M_constructIPKcEEvT_S8_St20forward_iterator_tagEN6_GuardD1Ev:
.LFB2828:
	.loc 12 238 4
	.cfi_startproc
	pushq	%rbp
	.seh_pushreg	%rbp
	.cfi_def_cfa_offset 16
	.cfi_offset 6, -16
	movq	%rsp, %rbp
	.seh_setframe	%rbp, 0
	.cfi_def_cfa_register 6
	subq	$32, %rsp
	.seh_stackalloc	32
	.seh_endprologue
	movq	%rcx, 16(%rbp)
.LBB170:
	.loc 12 238 20
	movq	16(%rbp), %rax
	movq	(%rax), %rax
	.loc 12 238 16
	testq	%rax, %rax
	je	.L98
	.loc 12 238 32 discriminator 1
	movq	16(%rbp), %rax
	movq	(%rax), %rax
	.loc 12 238 54 discriminator 1
	movq	%rax, %rcx
	call	_ZNSt7__cxx1112basic_stringIcSt11char_traitsIcESaIcEE10_M_disposeEv
.L98:
.LBE170:
	.loc 12 238 58
	nop
	addq	$32, %rsp
	popq	%rbp
	.cfi_restore 6
	.cfi_def_cfa 7, 8
	ret
	.cfi_endproc
.LFE2828:
	.seh_handler	__gxx_personality_seh0, @unwind, @except
	.seh_handlerdata
.LLSDA2828:
	.byte	0xff
	.byte	0xff
	.byte	0x1
	.uleb128 .LLSDACSE2828-.LLSDACSB2828
.LLSDACSB2828:
.LLSDACSE2828:
	.section	.text$_ZZNSt7__cxx1112basic_stringIcSt11char_traitsIcESaIcEE12_M_constructIPKcEEvT_S8_St20forward_iterator_tagEN6_GuardD1Ev,"x"
	.linkonce discard
	.seh_endproc
	.section	.text$_ZNSt7__cxx1112basic_stringIcSt11char_traitsIcESaIcEE12_M_constructIPKcEEvT_S8_St20forward_iterator_tag,"x"
	.linkonce discard
	.align 2
	.globl	_ZNSt7__cxx1112basic_stringIcSt11char_traitsIcESaIcEE12_M_constructIPKcEEvT_S8_St20forward_iterator_tag
	.def	_ZNSt7__cxx1112basic_stringIcSt11char_traitsIcESaIcEE12_M_constructIPKcEEvT_S8_St20forward_iterator_tag;	.scl	2;	.type	32;	.endef
	.seh_proc	_ZNSt7__cxx1112basic_stringIcSt11char_traitsIcESaIcEE12_M_constructIPKcEEvT_S8_St20forward_iterator_tag
_ZNSt7__cxx1112basic_stringIcSt11char_traitsIcESaIcEE12_M_constructIPKcEEvT_S8_St20forward_iterator_tag:
.LFB2822:
	.loc 12 217 7
	.cfi_startproc
	pushq	%rbp
	.seh_pushreg	%rbp
	.cfi_def_cfa_offset 16
	.cfi_offset 6, -16
	movq	%rsp, %rbp
	.seh_setframe	%rbp, 0
	.cfi_def_cfa_register 6
	subq	$112, %rsp
	.seh_stackalloc	112
	.seh_endprologue
	movq	%rcx, 16(%rbp)
	movq	%rdx, 24(%rbp)
	movq	%r8, 32(%rbp)
	movq	24(%rbp), %rax
	movq	%rax, -64(%rbp)
	movq	32(%rbp), %rax
	movq	%rax, -8(%rbp)
.LBB171:
.LBB172:
.LBB173:
.LBB174:
	.file 13 "D:/Program Files/JetBrains/CLion 2024.2.3/bin/mingw/lib/gcc/x86_64-w64-mingw32/13.1.0/include/c++/bits/stl_iterator_base_types.h"
	.loc 13 240 65
	nop
.LBE174:
.LBE173:
	.file 14 "D:/Program Files/JetBrains/CLion 2024.2.3/bin/mingw/lib/gcc/x86_64-w64-mingw32/13.1.0/include/c++/bits/stl_iterator_base_funcs.h"
	.loc 14 151 29
	movq	-64(%rbp), %rax
	movq	%rax, -16(%rbp)
	movq	-8(%rbp), %rax
	movq	%rax, -24(%rbp)
.LBB175:
.LBB176:
	.loc 14 106 23
	movq	-24(%rbp), %rax
	subq	-16(%rbp), %rax
.LBE176:
.LBE175:
	.loc 14 152 42
	nop
.LBE172:
.LBE171:
	.loc 12 221 12 discriminator 1
	movq	%rax, -48(%rbp)
	.loc 12 223 13
	movq	-48(%rbp), %rax
	.loc 12 223 2
	cmpq	$15, %rax
	jbe	.L103
	.loc 12 225 13
	leaq	-48(%rbp), %rdx
	movq	16(%rbp), %rax
	movl	$0, %r8d
	movq	%rax, %rcx
	call	_ZNSt7__cxx1112basic_stringIcSt11char_traitsIcESaIcEE9_M_createERyy
	movq	%rax, %rdx
	.loc 12 225 13 is_stmt 0 discriminator 1
	movq	16(%rbp), %rax
	movq	%rax, %rcx
	call	_ZNSt7__cxx1112basic_stringIcSt11char_traitsIcESaIcEE7_M_dataEPc
	.loc 12 226 17 is_stmt 1
	movq	-48(%rbp), %rdx
	movq	16(%rbp), %rax
	movq	%rax, %rcx
	call	_ZNSt7__cxx1112basic_stringIcSt11char_traitsIcESaIcEE11_M_capacityEy
	jmp	.L104
.L103:
	movq	16(%rbp), %rax
	movq	%rax, -32(%rbp)
.LBB177:
.LBB178:
.LBB179:
	.loc 5 362 32
	call	_ZSt21is_constant_evaluatedv
	.loc 5 362 2 discriminator 1
	testb	%al, %al
	je	.L105
.LBB180:
.LBB181:
	.loc 5 363 19
	movq	$0, -40(%rbp)
	.loc 5 363 4
	jmp	.L106
.L107:
	.loc 5 364 24
	movq	-32(%rbp), %rdx
	movq	-40(%rbp), %rax
	addq	%rdx, %rax
	addq	$16, %rax
	movb	$0, (%rax)
	.loc 5 363 4 discriminator 3
	addq	$1, -40(%rbp)
.L106:
	.loc 5 363 32 discriminator 1
	cmpq	$15, -40(%rbp)
	jbe	.L107
.L105:
.LBE181:
.LBE180:
.LBE179:
	.loc 5 366 22
	movq	-32(%rbp), %rax
	movq	%rax, %rcx
	call	_ZNSt7__cxx1112basic_stringIcSt11char_traitsIcESaIcEE13_M_local_dataEv
	.loc 5 366 23
	nop
.L104:
.LBE178:
.LBE177:
	.loc 12 241 4
	movq	16(%rbp), %rdx
	leaq	-56(%rbp), %rax
	movq	%rax, %rcx
	call	_ZZNSt7__cxx1112basic_stringIcSt11char_traitsIcESaIcEE12_M_constructIPKcEEvT_S8_St20forward_iterator_tagEN6_GuardC1EPS4_
	.loc 12 243 21
	movq	16(%rbp), %rax
	movq	%rax, %rcx
	call	_ZNKSt7__cxx1112basic_stringIcSt11char_traitsIcESaIcEE7_M_dataEv
	movq	%rax, %rcx
	.loc 12 243 21 is_stmt 0 discriminator 1
	movq	32(%rbp), %rdx
	movq	24(%rbp), %rax
	movq	%rdx, %r8
	movq	%rax, %rdx
	call	_ZNSt7__cxx1112basic_stringIcSt11char_traitsIcESaIcEE13_S_copy_charsEPcPKcS7_
	.loc 12 245 21 is_stmt 1
	movq	$0, -56(%rbp)
	.loc 12 247 15
	movq	-48(%rbp), %rdx
	movq	16(%rbp), %rax
	movq	%rax, %rcx
	call	_ZNSt7__cxx1112basic_stringIcSt11char_traitsIcESaIcEE13_M_set_lengthEy
	.loc 12 248 7
	leaq	-56(%rbp), %rax
	movq	%rax, %rcx
	call	_ZZNSt7__cxx1112basic_stringIcSt11char_traitsIcESaIcEE12_M_constructIPKcEEvT_S8_St20forward_iterator_tagEN6_GuardD1Ev
	nop
	addq	$112, %rsp
	popq	%rbp
	.cfi_restore 6
	.cfi_def_cfa 7, 8
	ret
	.cfi_endproc
.LFE2822:
	.seh_endproc
	.section	.text$_ZNKSt7__cxx1112basic_stringIcSt11char_traitsIcESaIcEE8capacityEv,"x"
	.linkonce discard
	.align 2
	.globl	_ZNKSt7__cxx1112basic_stringIcSt11char_traitsIcESaIcEE8capacityEv
	.def	_ZNKSt7__cxx1112basic_stringIcSt11char_traitsIcESaIcEE8capacityEv;	.scl	2;	.type	32;	.endef
	.seh_proc	_ZNKSt7__cxx1112basic_stringIcSt11char_traitsIcESaIcEE8capacityEv
_ZNKSt7__cxx1112basic_stringIcSt11char_traitsIcESaIcEE8capacityEv:
.LFB2890:
	.loc 5 1168 7
	.cfi_startproc
	pushq	%rbp
	.seh_pushreg	%rbp
	.cfi_def_cfa_offset 16
	.cfi_offset 6, -16
	movq	%rsp, %rbp
	.seh_setframe	%rbp, 0
	.cfi_def_cfa_register 6
	subq	$32, %rsp
	.seh_stackalloc	32
	.seh_endprologue
	movq	%rcx, 16(%rbp)
	.loc 5 1170 20
	movq	16(%rbp), %rax
	movq	%rax, %rcx
	call	_ZNKSt7__cxx1112basic_stringIcSt11char_traitsIcESaIcEE11_M_is_localEv
	.loc 5 1170 23 discriminator 1
	testb	%al, %al
	je	.L110
	movl	$15, %eax
	.loc 5 1171 25
	jmp	.L112
.L110:
	.loc 5 1170 23 discriminator 2
	movq	16(%rbp), %rax
	movq	16(%rax), %rax
.L112:
	.loc 5 1172 7
	addq	$32, %rsp
	popq	%rbp
	.cfi_restore 6
	.cfi_def_cfa 7, 8
	ret
	.cfi_endproc
.LFE2890:
	.seh_endproc
	.section	.text$_ZNSt7__cxx1112basic_stringIcSt11char_traitsIcESaIcEE6assignERKS4_,"x"
	.linkonce discard
	.align 2
	.globl	_ZNSt7__cxx1112basic_stringIcSt11char_traitsIcESaIcEE6assignERKS4_
	.def	_ZNSt7__cxx1112basic_stringIcSt11char_traitsIcESaIcEE6assignERKS4_;	.scl	2;	.type	32;	.endef
	.seh_proc	_ZNSt7__cxx1112basic_stringIcSt11char_traitsIcESaIcEE6assignERKS4_
_ZNSt7__cxx1112basic_stringIcSt11char_traitsIcESaIcEE6assignERKS4_:
.LFB2899:
	.loc 5 1576 7
	.cfi_startproc
	pushq	%rbp
	.seh_pushreg	%rbp
	.cfi_def_cfa_offset 16
	.cfi_offset 6, -16
	pushq	%rbx
	.seh_pushreg	%rbx
	.cfi_def_cfa_offset 24
	.cfi_offset 3, -24
	subq	$168, %rsp
	.seh_stackalloc	168
	.cfi_def_cfa_offset 192
	leaq	160(%rsp), %rbp
	.seh_setframe	%rbp, 160
	.cfi_def_cfa 6, 32
	.seh_endprologue
	movq	%rcx, 32(%rbp)
	movq	%rdx, 40(%rbp)
.LBB182:
.LBB183:
.LBB184:
	.file 15 "D:/Program Files/JetBrains/CLion 2024.2.3/bin/mingw/lib/gcc/x86_64-w64-mingw32/13.1.0/include/c++/ext/alloc_traits.h"
	.loc 15 106 66
	movl	$0, %eax
.LBE184:
.LBE183:
	.loc 5 1579 2 discriminator 1
	testb	%al, %al
	je	.L115
.LBB185:
.LBB186:
.LBB187:
.LBB188:
	.loc 15 118 43
	movl	$1, %eax
.LBE188:
.LBE187:
	.loc 5 1581 41 discriminator 1
	xorl	$1, %eax
	.loc 5 1582 3
	testb	%al, %al
	je	.L117
	.loc 5 1581 59
	movq	32(%rbp), %rax
	movq	%rax, %rcx
	call	_ZNKSt7__cxx1112basic_stringIcSt11char_traitsIcESaIcEE11_M_is_localEv
	.loc 5 1581 59 is_stmt 0 discriminator 1
	xorl	$1, %eax
	.loc 5 1581 44 is_stmt 1 discriminator 1
	testb	%al, %al
	je	.L117
	.loc 5 1582 50
	movq	40(%rbp), %rax
	movq	%rax, %rcx
	call	_ZNKSt7__cxx1112basic_stringIcSt11char_traitsIcESaIcEE16_M_get_allocatorEv
	movq	%rax, %rbx
	.loc 5 1582 22 discriminator 1
	movq	32(%rbp), %rax
	movq	%rax, %rcx
	call	_ZNSt7__cxx1112basic_stringIcSt11char_traitsIcESaIcEE16_M_get_allocatorEv
	movq	%rax, -24(%rbp)
	movq	%rbx, -32(%rbp)
.LBB189:
.LBB190:
	.loc 7 217 16
	movl	$1, %eax
.LBE190:
.LBE189:
	.loc 5 1582 25 discriminator 3
	xorl	$1, %eax
	.loc 5 1582 3 discriminator 3
	testb	%al, %al
	je	.L117
	.loc 5 1582 3 is_stmt 0 discriminator 2
	movl	$1, %eax
	.loc 5 1582 3
	jmp	.L119
.L117:
	.loc 5 1582 3 discriminator 3
	movl	$0, %eax
.L119:
	.loc 5 1581 6 is_stmt 1
	testb	%al, %al
	je	.L120
.LBB191:
.LBB192:
	.loc 5 1586 17
	movq	40(%rbp), %rax
	movq	%rax, %rcx
	call	_ZNKSt7__cxx1112basic_stringIcSt11char_traitsIcESaIcEE4sizeEv
	.loc 5 1586 20 discriminator 1
	cmpq	$15, %rax
	setbe	%al
	.loc 5 1586 3 discriminator 1
	testb	%al, %al
	je	.L121
	.loc 5 1588 17
	movq	32(%rbp), %rax
	movq	16(%rax), %rdx
	movq	32(%rbp), %rax
	movq	%rax, %rcx
	call	_ZNSt7__cxx1112basic_stringIcSt11char_traitsIcESaIcEE10_M_destroyEy
	movq	32(%rbp), %rax
	movq	%rax, -40(%rbp)
.LBB193:
.LBB194:
.LBB195:
	.loc 5 362 32
	call	_ZSt21is_constant_evaluatedv
	.loc 5 362 2 discriminator 1
	testb	%al, %al
	je	.L122
.LBB196:
.LBB197:
	.loc 5 363 19
	movq	$0, -48(%rbp)
	.loc 5 363 4
	jmp	.L123
.L124:
	.loc 5 364 24
	movq	-40(%rbp), %rdx
	movq	-48(%rbp), %rax
	addq	%rdx, %rax
	addq	$16, %rax
	movb	$0, (%rax)
	.loc 5 363 4 discriminator 3
	addq	$1, -48(%rbp)
.L123:
	.loc 5 363 32 discriminator 1
	cmpq	$15, -48(%rbp)
	jbe	.L124
.L122:
.LBE197:
.LBE196:
.LBE195:
	.loc 5 366 22
	movq	-40(%rbp), %rax
	movq	%rax, %rcx
	call	_ZNSt7__cxx1112basic_stringIcSt11char_traitsIcESaIcEE13_M_local_dataEv
	movq	%rax, %rdx
	.loc 5 366 23
	nop
.LBE194:
.LBE193:
	.loc 5 1589 14 discriminator 1
	movq	32(%rbp), %rax
	movq	%rax, %rcx
	call	_ZNSt7__cxx1112basic_stringIcSt11char_traitsIcESaIcEE7_M_dataEPc
	.loc 5 1590 20
	movq	32(%rbp), %rax
	movl	$0, %edx
	movq	%rax, %rcx
	call	_ZNSt7__cxx1112basic_stringIcSt11char_traitsIcESaIcEE13_M_set_lengthEy
	jmp	.L120
.L121:
.LBB198:
	.loc 5 1594 36
	movq	40(%rbp), %rax
	movq	%rax, %rcx
	call	_ZNKSt7__cxx1112basic_stringIcSt11char_traitsIcESaIcEE4sizeEv
	movq	%rax, -8(%rbp)
	.loc 5 1595 44
	movq	40(%rbp), %rax
	movq	%rax, %rcx
	call	_ZNKSt7__cxx1112basic_stringIcSt11char_traitsIcESaIcEE16_M_get_allocatorEv
	movq	%rax, -72(%rbp)
	leaq	-105(%rbp), %rax
	movq	%rax, -80(%rbp)
	movq	-72(%rbp), %rax
	movq	%rax, -88(%rbp)
.LBB199:
.LBB200:
.LBB201:
.LBB202:
.LBB203:
	.loc 8 92 58
	nop
.LBE203:
.LBE202:
.LBE201:
	.loc 7 168 38
	nop
.LBE200:
.LBE199:
	.loc 5 1597 43
	movq	-8(%rbp), %rax
	addq	$1, %rax
	movq	%rax, -56(%rbp)
	leaq	-105(%rbp), %rax
	movq	%rax, -64(%rbp)
	movq	-56(%rbp), %rax
	movq	%rax, -120(%rbp)
.LBB204:
.LBB205:
.LBB206:
.LBB207:
	.loc 7 191 34
	call	_ZSt23__is_constant_evaluatedv
	.loc 7 191 2 discriminator 1
	testb	%al, %al
	je	.L126
	.loc 7 193 32
	movq	-120(%rbp), %rax
	movq	%rax, -120(%rbp)
	movl	$0, %eax
	andl	$1, %eax
	.loc 7 193 6
	testb	%al, %al
	je	.L127
.LEHB6:
	.loc 7 194 41
	call	_ZSt28__throw_bad_array_new_lengthv
.L127:
	.loc 7 195 45
	movq	-120(%rbp), %rax
	movq	%rax, %rcx
	call	_Znwy
	.loc 7 195 50
	jmp	.L128
.L126:
	.loc 7 198 40
	movq	-120(%rbp), %rdx
	movq	-64(%rbp), %rax
	movl	$0, %r8d
	movq	%rax, %rcx
	call	_ZNSt15__new_allocatorIcE8allocateEyPKv
.LEHE6:
	.loc 7 198 47
	nop
.L128:
.LBE207:
.LBE206:
	.file 16 "D:/Program Files/JetBrains/CLion 2024.2.3/bin/mingw/lib/gcc/x86_64-w64-mingw32/13.1.0/include/c++/bits/alloc_traits.h"
	.loc 16 482 32
	nop
.LBE205:
.LBE204:
	.loc 5 1597 43 discriminator 1
	movq	%rax, -16(%rbp)
	.loc 5 1598 17
	movq	32(%rbp), %rax
	movq	16(%rax), %rdx
	movq	32(%rbp), %rax
	movq	%rax, %rcx
	call	_ZNSt7__cxx1112basic_stringIcSt11char_traitsIcESaIcEE10_M_destroyEy
	.loc 5 1599 14
	movq	-16(%rbp), %rdx
	movq	32(%rbp), %rax
	movq	%rax, %rcx
	call	_ZNSt7__cxx1112basic_stringIcSt11char_traitsIcESaIcEE7_M_dataEPc
	.loc 5 1600 18
	movq	-8(%rbp), %rdx
	movq	32(%rbp), %rax
	movq	%rax, %rcx
	call	_ZNSt7__cxx1112basic_stringIcSt11char_traitsIcESaIcEE11_M_capacityEy
	.loc 5 1601 20
	movq	-8(%rbp), %rdx
	movq	32(%rbp), %rax
	movq	%rax, %rcx
	call	_ZNSt7__cxx1112basic_stringIcSt11char_traitsIcESaIcEE13_M_set_lengthEy
.LBB208:
.LBB209:
	.loc 7 184 31
	nop
.L120:
.LBE209:
.LBE208:
.LBE198:
.LBE192:
.LBE191:
.LBE186:
	.loc 5 1604 69
	movq	40(%rbp), %rax
	movq	%rax, %rcx
	call	_ZNKSt7__cxx1112basic_stringIcSt11char_traitsIcESaIcEE16_M_get_allocatorEv
	movq	%rax, %rbx
	.loc 5 1604 43 discriminator 1
	movq	32(%rbp), %rax
	movq	%rax, %rcx
	call	_ZNSt7__cxx1112basic_stringIcSt11char_traitsIcESaIcEE16_M_get_allocatorEv
	movq	%rax, -96(%rbp)
	movq	%rbx, -104(%rbp)
.LBB215:
.LBB216:
	.loc 16 721 5
	nop
.L115:
.LBE216:
.LBE215:
.LBE185:
.LBE182:
	.loc 5 1607 17
	movq	40(%rbp), %rdx
	movq	32(%rbp), %rax
	movq	%rax, %rcx
.LEHB7:
	call	_ZNSt7__cxx1112basic_stringIcSt11char_traitsIcESaIcEE9_M_assignERKS4_
	.loc 5 1608 10
	movq	32(%rbp), %rax
	jmp	.L133
.L132:
.LBB219:
.LBB218:
.LBB217:
.LBB214:
.LBB213:
.LBB212:
.LBB210:
.LBB211:
	.loc 7 184 31
	nop
	movq	%rax, %rcx
	call	_Unwind_Resume
.LEHE7:
.L133:
.LBE211:
.LBE210:
.LBE212:
.LBE213:
.LBE214:
.LBE217:
.LBE218:
.LBE219:
	.loc 5 1609 7
	addq	$168, %rsp
	popq	%rbx
	.cfi_restore 3
	popq	%rbp
	.cfi_restore 6
	.cfi_def_cfa 7, -152
	ret
	.cfi_endproc
.LFE2899:
	.seh_handler	__gxx_personality_seh0, @unwind, @except
	.seh_handlerdata
.LLSDA2899:
	.byte	0xff
	.byte	0xff
	.byte	0x1
	.uleb128 .LLSDACSE2899-.LLSDACSB2899
.LLSDACSB2899:
	.uleb128 .LEHB6-.LFB2899
	.uleb128 .LEHE6-.LEHB6
	.uleb128 .L132-.LFB2899
	.uleb128 0
	.uleb128 .LEHB7-.LFB2899
	.uleb128 .LEHE7-.LEHB7
	.uleb128 0
	.uleb128 0
.LLSDACSE2899:
	.section	.text$_ZNSt7__cxx1112basic_stringIcSt11char_traitsIcESaIcEE6assignERKS4_,"x"
	.linkonce discard
	.seh_endproc
	.section .rdata,"dr"
.LC4:
	.ascii "basic_string::_M_create\0"
	.section	.text$_ZNSt7__cxx1112basic_stringIcSt11char_traitsIcESaIcEE9_M_createERyy,"x"
	.linkonce discard
	.align 2
	.globl	_ZNSt7__cxx1112basic_stringIcSt11char_traitsIcESaIcEE9_M_createERyy
	.def	_ZNSt7__cxx1112basic_stringIcSt11char_traitsIcESaIcEE9_M_createERyy;	.scl	2;	.type	32;	.endef
	.seh_proc	_ZNSt7__cxx1112basic_stringIcSt11char_traitsIcESaIcEE9_M_createERyy
_ZNSt7__cxx1112basic_stringIcSt11char_traitsIcESaIcEE9_M_createERyy:
.LFB2905:
	.loc 12 134 5
	.cfi_startproc
	pushq	%rbp
	.seh_pushreg	%rbp
	.cfi_def_cfa_offset 16
	.cfi_offset 6, -16
	pushq	%rbx
	.seh_pushreg	%rbx
	.cfi_def_cfa_offset 24
	.cfi_offset 3, -24
	subq	$72, %rsp
	.seh_stackalloc	72
	.cfi_def_cfa_offset 96
	leaq	64(%rsp), %rbp
	.seh_setframe	%rbp, 64
	.cfi_def_cfa 6, 32
	.seh_endprologue
	movq	%rcx, 32(%rbp)
	movq	%rdx, 40(%rbp)
	movq	%r8, 48(%rbp)
	.loc 12 139 22
	movq	40(%rbp), %rax
	movq	(%rax), %rbx
	.loc 12 139 32
	movq	32(%rbp), %rax
	movq	%rax, %rcx
	call	_ZNKSt7__cxx1112basic_stringIcSt11char_traitsIcESaIcEE8max_sizeEv
	.loc 12 139 22 discriminator 1
	cmpq	%rbx, %rax
	setb	%al
	.loc 12 139 7 discriminator 1
	testb	%al, %al
	je	.L135
	.loc 12 140 27
	leaq	.LC4(%rip), %rax
	movq	%rax, %rcx
	call	_ZSt20__throw_length_errorPKc
.L135:
	.loc 12 145 22
	movq	40(%rbp), %rax
	movq	(%rax), %rax
	.loc 12 145 7
	cmpq	%rax, 48(%rbp)
	jnb	.L136
	.loc 12 145 53 discriminator 1
	movq	40(%rbp), %rax
	movq	(%rax), %rdx
	.loc 12 145 57 discriminator 1
	movq	48(%rbp), %rax
	addq	%rax, %rax
	.loc 12 145 39 discriminator 1
	cmpq	%rax, %rdx
	jnb	.L136
	.loc 12 147 19
	movq	48(%rbp), %rax
	leaq	(%rax,%rax), %rdx
	.loc 12 147 15
	movq	40(%rbp), %rax
	movq	%rdx, (%rax)
	.loc 12 149 19
	movq	40(%rbp), %rax
	movq	(%rax), %rbx
	.loc 12 149 29
	movq	32(%rbp), %rax
	movq	%rax, %rcx
	call	_ZNKSt7__cxx1112basic_stringIcSt11char_traitsIcESaIcEE8max_sizeEv
	.loc 12 149 19 discriminator 1
	cmpq	%rbx, %rax
	setb	%al
	.loc 12 149 4 discriminator 1
	testb	%al, %al
	je	.L136
	.loc 12 150 27
	movq	32(%rbp), %rax
	movq	%rax, %rcx
	call	_ZNKSt7__cxx1112basic_stringIcSt11char_traitsIcESaIcEE8max_sizeEv
	.loc 12 150 17 discriminator 1
	movq	40(%rbp), %rdx
	movq	%rax, (%rdx)
.L136:
	.loc 12 155 37
	movq	40(%rbp), %rax
	movq	(%rax), %rax
	leaq	1(%rax), %rbx
	.loc 12 155 54
	movq	32(%rbp), %rax
	movq	%rax, %rcx
	call	_ZNSt7__cxx1112basic_stringIcSt11char_traitsIcESaIcEE16_M_get_allocatorEv
	movq	%rax, -8(%rbp)
	movq	%rbx, -16(%rbp)
	movq	-8(%rbp), %rax
	movq	%rax, -24(%rbp)
	movq	-16(%rbp), %rax
	movq	%rax, -32(%rbp)
.LBB220:
.LBB221:
.LBB222:
.LBB223:
	.loc 7 191 34
	call	_ZSt23__is_constant_evaluatedv
	.loc 7 191 2 discriminator 1
	testb	%al, %al
	je	.L137
	.loc 7 193 32
	movq	-32(%rbp), %rax
	movq	%rax, -32(%rbp)
	movl	$0, %eax
	andl	$1, %eax
	.loc 7 193 6
	testb	%al, %al
	je	.L138
	.loc 7 194 41
	call	_ZSt28__throw_bad_array_new_lengthv
.L138:
	.loc 7 195 45
	movq	-32(%rbp), %rax
	movq	%rax, %rcx
	call	_Znwy
	.loc 7 195 50
	jmp	.L139
.L137:
	.loc 7 198 40
	movq	-32(%rbp), %rdx
	movq	-24(%rbp), %rax
	movl	$0, %r8d
	movq	%rax, %rcx
	call	_ZNSt15__new_allocatorIcE8allocateEyPKv
	.loc 7 198 47
	nop
.L139:
.LBE223:
.LBE222:
	.loc 16 482 32
	nop
.LBE221:
.LBE220:
	.loc 12 156 5
	addq	$72, %rsp
	popq	%rbx
	.cfi_restore 3
	popq	%rbp
	.cfi_restore 6
	.cfi_def_cfa 7, -56
	ret
	.cfi_endproc
.LFE2905:
	.seh_endproc
	.section	.text$_ZNSt7__cxx1112basic_stringIcSt11char_traitsIcESaIcEE10_M_destroyEy,"x"
	.linkonce discard
	.align 2
	.globl	_ZNSt7__cxx1112basic_stringIcSt11char_traitsIcESaIcEE10_M_destroyEy
	.def	_ZNSt7__cxx1112basic_stringIcSt11char_traitsIcESaIcEE10_M_destroyEy;	.scl	2;	.type	32;	.endef
	.seh_proc	_ZNSt7__cxx1112basic_stringIcSt11char_traitsIcESaIcEE10_M_destroyEy
_ZNSt7__cxx1112basic_stringIcSt11char_traitsIcESaIcEE10_M_destroyEy:
.LFB2907:
	.loc 5 299 7
	.cfi_startproc
	pushq	%rbp
	.seh_pushreg	%rbp
	.cfi_def_cfa_offset 16
	.cfi_offset 6, -16
	pushq	%rsi
	.seh_pushreg	%rsi
	.cfi_def_cfa_offset 24
	.cfi_offset 4, -24
	pushq	%rbx
	.seh_pushreg	%rbx
	.cfi_def_cfa_offset 32
	.cfi_offset 3, -32
	subq	$80, %rsp
	.seh_stackalloc	80
	.cfi_def_cfa_offset 112
	leaq	80(%rsp), %rbp
	.seh_setframe	%rbp, 80
	.cfi_def_cfa 6, 32
	.seh_endprologue
	movq	%rcx, 32(%rbp)
	movq	%rdx, 40(%rbp)
	.loc 5 300 34
	movq	40(%rbp), %rax
	leaq	1(%rax), %rsi
	movq	32(%rbp), %rax
	movq	%rax, %rcx
	call	_ZNKSt7__cxx1112basic_stringIcSt11char_traitsIcESaIcEE7_M_dataEv
	movq	%rax, %rbx
	.loc 5 300 51 discriminator 1
	movq	32(%rbp), %rax
	movq	%rax, %rcx
	call	_ZNSt7__cxx1112basic_stringIcSt11char_traitsIcESaIcEE16_M_get_allocatorEv
	movq	%rax, -8(%rbp)
	movq	%rbx, -16(%rbp)
	movq	%rsi, -24(%rbp)
	movq	-8(%rbp), %rax
	movq	%rax, -32(%rbp)
	movq	-16(%rbp), %rax
	movq	%rax, -40(%rbp)
	movq	-24(%rbp), %rax
	movq	%rax, -48(%rbp)
.LBB224:
.LBB225:
.LBB226:
.LBB227:
	.loc 7 205 34
	call	_ZSt23__is_constant_evaluatedv
	.loc 7 205 2 discriminator 1
	testb	%al, %al
	je	.L143
	.loc 7 207 23
	movq	-40(%rbp), %rax
	movq	%rax, %rcx
	call	_ZdlPv
	.loc 7 208 6
	jmp	.L144
.L143:
	.loc 7 210 35
	movq	-48(%rbp), %rcx
	movq	-40(%rbp), %rdx
	movq	-32(%rbp), %rax
	movq	%rcx, %r8
	movq	%rax, %rcx
	call	_ZNSt15__new_allocatorIcE10deallocateEPcy
.L144:
.LBE227:
.LBE226:
	.loc 16 516 35
	nop
.LBE225:
.LBE224:
	.loc 5 300 79
	nop
	addq	$80, %rsp
	popq	%rbx
	.cfi_restore 3
	popq	%rsi
	.cfi_restore 4
	popq	%rbp
	.cfi_restore 6
	.cfi_def_cfa 7, -56
	ret
	.cfi_endproc
.LFE2907:
	.seh_endproc
	.section	.text$_ZNKSt7__cxx1112basic_stringIcSt11char_traitsIcESaIcEE13_M_local_dataEv,"x"
	.linkonce discard
	.align 2
	.globl	_ZNKSt7__cxx1112basic_stringIcSt11char_traitsIcESaIcEE13_M_local_dataEv
	.def	_ZNKSt7__cxx1112basic_stringIcSt11char_traitsIcESaIcEE13_M_local_dataEv;	.scl	2;	.type	32;	.endef
	.seh_proc	_ZNKSt7__cxx1112basic_stringIcSt11char_traitsIcESaIcEE13_M_local_dataEv
_ZNKSt7__cxx1112basic_stringIcSt11char_traitsIcESaIcEE13_M_local_dataEv:
.LFB2908:
	.loc 5 249 7
	.cfi_startproc
	pushq	%rbp
	.seh_pushreg	%rbp
	.cfi_def_cfa_offset 16
	.cfi_offset 6, -16
	movq	%rsp, %rbp
	.seh_setframe	%rbp, 0
	.cfi_def_cfa_register 6
	subq	$32, %rsp
	.seh_stackalloc	32
	.seh_endprologue
	movq	%rcx, 16(%rbp)
	.loc 5 252 57
	movq	16(%rbp), %rax
	addq	$16, %rax
	.loc 5 252 55
	movq	%rax, %rcx
	call	_ZNSt19__ptr_traits_ptr_toIPKcS0_Lb0EE10pointer_toERS0_
	.loc 5 256 7
	addq	$32, %rsp
	popq	%rbp
	.cfi_restore 6
	.cfi_def_cfa 7, 8
	ret
	.cfi_endproc
.LFE2908:
	.seh_endproc
	.section	.text$_ZNSt7__cxx1112basic_stringIcSt11char_traitsIcESaIcEE13_S_copy_charsEPcPKcS7_,"x"
	.linkonce discard
	.globl	_ZNSt7__cxx1112basic_stringIcSt11char_traitsIcESaIcEE13_S_copy_charsEPcPKcS7_
	.def	_ZNSt7__cxx1112basic_stringIcSt11char_traitsIcESaIcEE13_S_copy_charsEPcPKcS7_;	.scl	2;	.type	32;	.endef
	.seh_proc	_ZNSt7__cxx1112basic_stringIcSt11char_traitsIcESaIcEE13_S_copy_charsEPcPKcS7_
_ZNSt7__cxx1112basic_stringIcSt11char_traitsIcESaIcEE13_S_copy_charsEPcPKcS7_:
.LFB2928:
	.loc 5 483 7
	.cfi_startproc
	pushq	%rbp
	.seh_pushreg	%rbp
	.cfi_def_cfa_offset 16
	.cfi_offset 6, -16
	movq	%rsp, %rbp
	.seh_setframe	%rbp, 0
	.cfi_def_cfa_register 6
	subq	$32, %rsp
	.seh_stackalloc	32
	.seh_endprologue
	movq	%rcx, 16(%rbp)
	movq	%rdx, 24(%rbp)
	movq	%r8, 32(%rbp)
	.loc 5 485 33
	movq	32(%rbp), %rax
	subq	24(%rbp), %rax
	.loc 5 485 16
	movq	%rax, %rcx
	movq	24(%rbp), %rdx
	movq	16(%rbp), %rax
	movq	%rcx, %r8
	movq	%rax, %rcx
	call	_ZNSt7__cxx1112basic_stringIcSt11char_traitsIcESaIcEE7_S_copyEPcPKcy
	.loc 5 485 42
	nop
	addq	$32, %rsp
	popq	%rbp
	.cfi_restore 6
	.cfi_def_cfa 7, 8
	ret
	.cfi_endproc
.LFE2928:
	.seh_handler	__gxx_personality_seh0, @unwind, @except
	.seh_handlerdata
.LLSDA2928:
	.byte	0xff
	.byte	0xff
	.byte	0x1
	.uleb128 .LLSDACSE2928-.LLSDACSB2928
.LLSDACSB2928:
.LLSDACSE2928:
	.section	.text$_ZNSt7__cxx1112basic_stringIcSt11char_traitsIcESaIcEE13_S_copy_charsEPcPKcS7_,"x"
	.linkonce discard
	.seh_endproc
	.section	.text$_ZNKSt7__cxx1112basic_stringIcSt11char_traitsIcESaIcEE16_M_get_allocatorEv,"x"
	.linkonce discard
	.align 2
	.globl	_ZNKSt7__cxx1112basic_stringIcSt11char_traitsIcESaIcEE16_M_get_allocatorEv
	.def	_ZNKSt7__cxx1112basic_stringIcSt11char_traitsIcESaIcEE16_M_get_allocatorEv;	.scl	2;	.type	32;	.endef
	.seh_proc	_ZNKSt7__cxx1112basic_stringIcSt11char_traitsIcESaIcEE16_M_get_allocatorEv
_ZNKSt7__cxx1112basic_stringIcSt11char_traitsIcESaIcEE16_M_get_allocatorEv:
.LFB2982:
	.loc 5 352 7
	.cfi_startproc
	pushq	%rbp
	.seh_pushreg	%rbp
	.cfi_def_cfa_offset 16
	.cfi_offset 6, -16
	movq	%rsp, %rbp
	.seh_setframe	%rbp, 0
	.cfi_def_cfa_register 6
	.seh_endprologue
	movq	%rcx, 16(%rbp)
	.loc 5 353 16
	movq	16(%rbp), %rax
	.loc 5 353 29
	popq	%rbp
	.cfi_restore 6
	.cfi_def_cfa 7, 8
	ret
	.cfi_endproc
.LFE2982:
	.seh_endproc
	.section	.text$_ZNSt7__cxx1112basic_stringIcSt11char_traitsIcESaIcEE9_M_assignERKS4_,"x"
	.linkonce discard
	.align 2
	.globl	_ZNSt7__cxx1112basic_stringIcSt11char_traitsIcESaIcEE9_M_assignERKS4_
	.def	_ZNSt7__cxx1112basic_stringIcSt11char_traitsIcESaIcEE9_M_assignERKS4_;	.scl	2;	.type	32;	.endef
	.seh_proc	_ZNSt7__cxx1112basic_stringIcSt11char_traitsIcESaIcEE9_M_assignERKS4_
_ZNSt7__cxx1112basic_stringIcSt11char_traitsIcESaIcEE9_M_assignERKS4_:
.LFB2995:
	.loc 12 273 5
	.cfi_startproc
	pushq	%rbp
	.seh_pushreg	%rbp
	.cfi_def_cfa_offset 16
	.cfi_offset 6, -16
	pushq	%rbx
	.seh_pushreg	%rbx
	.cfi_def_cfa_offset 24
	.cfi_offset 3, -24
	subq	$72, %rsp
	.seh_stackalloc	72
	.cfi_def_cfa_offset 96
	leaq	64(%rsp), %rbp
	.seh_setframe	%rbp, 64
	.cfi_def_cfa 6, 32
	.seh_endprologue
	movq	%rcx, 32(%rbp)
	movq	%rdx, 40(%rbp)
.LBB228:
	.loc 12 276 35
	movq	40(%rbp), %rax
	movq	%rax, %rcx
	call	_ZSt11__addressofIKNSt7__cxx1112basic_stringIcSt11char_traitsIcESaIcEEEEPT_RS7_
	.loc 12 276 16 discriminator 1
	cmpq	%rax, 32(%rbp)
	setne	%al
	.loc 12 276 7 discriminator 1
	testb	%al, %al
	je	.L154
.LBB229:
	.loc 12 278 42
	movq	40(%rbp), %rax
	movq	%rax, %rcx
	call	_ZNKSt7__cxx1112basic_stringIcSt11char_traitsIcESaIcEE6lengthEv
	movq	%rax, -8(%rbp)
	.loc 12 279 41
	movq	32(%rbp), %rax
	movq	%rax, %rcx
	call	_ZNKSt7__cxx1112basic_stringIcSt11char_traitsIcESaIcEE8capacityEv
	movq	%rax, -16(%rbp)
.LBB230:
	.loc 12 281 4
	movq	-8(%rbp), %rax
	cmpq	%rax, -16(%rbp)
	jnb	.L152
.LBB231:
	.loc 12 283 18
	movq	-8(%rbp), %rax
	movq	%rax, -32(%rbp)
	.loc 12 284 33
	movq	-16(%rbp), %rcx
	leaq	-32(%rbp), %rdx
	movq	32(%rbp), %rax
	movq	%rcx, %r8
	movq	%rax, %rcx
	call	_ZNSt7__cxx1112basic_stringIcSt11char_traitsIcESaIcEE9_M_createERyy
	.loc 12 284 33 is_stmt 0 discriminator 1
	movq	%rax, -24(%rbp)
	.loc 12 285 18 is_stmt 1
	movq	32(%rbp), %rax
	movq	%rax, %rcx
	call	_ZNSt7__cxx1112basic_stringIcSt11char_traitsIcESaIcEE10_M_disposeEv
	.loc 12 286 15
	movq	-24(%rbp), %rdx
	movq	32(%rbp), %rax
	movq	%rax, %rcx
	call	_ZNSt7__cxx1112basic_stringIcSt11char_traitsIcESaIcEE7_M_dataEPc
	.loc 12 287 19
	movq	-32(%rbp), %rdx
	movq	32(%rbp), %rax
	movq	%rax, %rcx
	call	_ZNSt7__cxx1112basic_stringIcSt11char_traitsIcESaIcEE11_M_capacityEy
.L152:
.LBE231:
.LBE230:
	.loc 12 290 4
	cmpq	$0, -8(%rbp)
	je	.L153
	.loc 12 291 44
	movq	40(%rbp), %rax
	movq	%rax, %rcx
	call	_ZNKSt7__cxx1112basic_stringIcSt11char_traitsIcESaIcEE7_M_dataEv
	movq	%rax, %rbx
	.loc 12 291 19 discriminator 1
	movq	32(%rbp), %rax
	movq	%rax, %rcx
	call	_ZNKSt7__cxx1112basic_stringIcSt11char_traitsIcESaIcEE7_M_dataEv
	.loc 12 291 19 is_stmt 0 discriminator 2
	movq	-8(%rbp), %rdx
	movq	%rdx, %r8
	movq	%rbx, %rdx
	movq	%rax, %rcx
	call	_ZNSt7__cxx1112basic_stringIcSt11char_traitsIcESaIcEE7_S_copyEPcPKcy
.L153:
	.loc 12 293 17 is_stmt 1
	movq	-8(%rbp), %rdx
	movq	32(%rbp), %rax
	movq	%rax, %rcx
	call	_ZNSt7__cxx1112basic_stringIcSt11char_traitsIcESaIcEE13_M_set_lengthEy
.L154:
.LBE229:
.LBE228:
	.loc 12 295 5
	nop
	addq	$72, %rsp
	popq	%rbx
	.cfi_restore 3
	popq	%rbp
	.cfi_restore 6
	.cfi_def_cfa 7, -56
	ret
	.cfi_endproc
.LFE2995:
	.seh_endproc
	.section	.text$_ZNKSt7__cxx1112basic_stringIcSt11char_traitsIcESaIcEE8max_sizeEv,"x"
	.linkonce discard
	.align 2
	.globl	_ZNKSt7__cxx1112basic_stringIcSt11char_traitsIcESaIcEE8max_sizeEv
	.def	_ZNKSt7__cxx1112basic_stringIcSt11char_traitsIcESaIcEE8max_sizeEv;	.scl	2;	.type	32;	.endef
	.seh_proc	_ZNKSt7__cxx1112basic_stringIcSt11char_traitsIcESaIcEE8max_sizeEv
_ZNKSt7__cxx1112basic_stringIcSt11char_traitsIcESaIcEE8max_sizeEv:
.LFB2996:
	.loc 5 1083 7
	.cfi_startproc
	pushq	%rbp
	.seh_pushreg	%rbp
	.cfi_def_cfa_offset 16
	.cfi_offset 6, -16
	movq	%rsp, %rbp
	.seh_setframe	%rbp, 0
	.cfi_def_cfa_register 6
	subq	$48, %rsp
	.seh_stackalloc	48
	.seh_endprologue
	movq	%rcx, 16(%rbp)
	.loc 5 1084 57
	movq	16(%rbp), %rax
	movq	%rax, %rcx
	call	_ZNKSt7__cxx1112basic_stringIcSt11char_traitsIcESaIcEE16_M_get_allocatorEv
	movq	%rax, -8(%rbp)
.LBB232:
.LBB233:
	.loc 16 575 39
	movq	$-1, %rax
.LBE233:
.LBE232:
	.loc 5 1084 61 discriminator 2
	subq	$1, %rax
	.loc 5 1084 68 discriminator 2
	shrq	%rax
	.loc 5 1084 71
	addq	$48, %rsp
	popq	%rbp
	.cfi_restore 6
	.cfi_def_cfa 7, 8
	ret
	.cfi_endproc
.LFE2996:
	.seh_endproc
	.section	.text$_ZNSt19__ptr_traits_ptr_toIPKcS0_Lb0EE10pointer_toERS0_,"x"
	.linkonce discard
	.globl	_ZNSt19__ptr_traits_ptr_toIPKcS0_Lb0EE10pointer_toERS0_
	.def	_ZNSt19__ptr_traits_ptr_toIPKcS0_Lb0EE10pointer_toERS0_;	.scl	2;	.type	32;	.endef
	.seh_proc	_ZNSt19__ptr_traits_ptr_toIPKcS0_Lb0EE10pointer_toERS0_
_ZNSt19__ptr_traits_ptr_toIPKcS0_Lb0EE10pointer_toERS0_:
.LFB2998:
	.loc 9 141 7
	.cfi_startproc
	pushq	%rbp
	.seh_pushreg	%rbp
	.cfi_def_cfa_offset 16
	.cfi_offset 6, -16
	movq	%rsp, %rbp
	.seh_setframe	%rbp, 0
	.cfi_def_cfa_register 6
	subq	$32, %rsp
	.seh_stackalloc	32
	.seh_endprologue
	movq	%rcx, 16(%rbp)
	.loc 9 142 30
	movq	16(%rbp), %rax
	movq	%rax, %rcx
	call	_ZSt9addressofIKcEPT_RS1_
	.loc 9 142 37
	addq	$32, %rsp
	popq	%rbp
	.cfi_restore 6
	.cfi_def_cfa 7, 8
	ret
	.cfi_endproc
.LFE2998:
	.seh_endproc
	.section	.text$_ZNSt7__cxx1112basic_stringIcSt11char_traitsIcESaIcEE7_S_copyEPcPKcy,"x"
	.linkonce discard
	.globl	_ZNSt7__cxx1112basic_stringIcSt11char_traitsIcESaIcEE7_S_copyEPcPKcy
	.def	_ZNSt7__cxx1112basic_stringIcSt11char_traitsIcESaIcEE7_S_copyEPcPKcy;	.scl	2;	.type	32;	.endef
	.seh_proc	_ZNSt7__cxx1112basic_stringIcSt11char_traitsIcESaIcEE7_S_copyEPcPKcy
_ZNSt7__cxx1112basic_stringIcSt11char_traitsIcESaIcEE7_S_copyEPcPKcy:
.LFB3008:
	.loc 5 426 7
	.cfi_startproc
	pushq	%rbp
	.seh_pushreg	%rbp
	.cfi_def_cfa_offset 16
	.cfi_offset 6, -16
	movq	%rsp, %rbp
	.seh_setframe	%rbp, 0
	.cfi_def_cfa_register 6
	subq	$32, %rsp
	.seh_stackalloc	32
	.seh_endprologue
	movq	%rcx, 16(%rbp)
	movq	%rdx, 24(%rbp)
	movq	%r8, 32(%rbp)
	.loc 5 428 2
	cmpq	$1, 32(%rbp)
	jne	.L161
	.loc 5 429 23
	movq	24(%rbp), %rdx
	movq	16(%rbp), %rax
	movq	%rax, %rcx
	call	_ZNSt11char_traitsIcE6assignERcRKc
	.loc 5 432 7
	jmp	.L163
.L161:
	.loc 5 431 21
	movq	32(%rbp), %rcx
	movq	24(%rbp), %rdx
	movq	16(%rbp), %rax
	movq	%rcx, %r8
	movq	%rax, %rcx
	call	_ZNSt11char_traitsIcE4copyEPcPKcy
.L163:
	.loc 5 432 7
	nop
	addq	$32, %rsp
	popq	%rbp
	.cfi_restore 6
	.cfi_def_cfa 7, 8
	ret
	.cfi_endproc
.LFE3008:
	.seh_endproc
	.section	.text$_ZSt11__addressofIKNSt7__cxx1112basic_stringIcSt11char_traitsIcESaIcEEEEPT_RS7_,"x"
	.linkonce discard
	.globl	_ZSt11__addressofIKNSt7__cxx1112basic_stringIcSt11char_traitsIcESaIcEEEEPT_RS7_
	.def	_ZSt11__addressofIKNSt7__cxx1112basic_stringIcSt11char_traitsIcESaIcEEEEPT_RS7_;	.scl	2;	.type	32;	.endef
	.seh_proc	_ZSt11__addressofIKNSt7__cxx1112basic_stringIcSt11char_traitsIcESaIcEEEEPT_RS7_
_ZSt11__addressofIKNSt7__cxx1112basic_stringIcSt11char_traitsIcESaIcEEEEPT_RS7_:
.LFB3065:
	.loc 10 49 5
	.cfi_startproc
	pushq	%rbp
	.seh_pushreg	%rbp
	.cfi_def_cfa_offset 16
	.cfi_offset 6, -16
	movq	%rsp, %rbp
	.seh_setframe	%rbp, 0
	.cfi_def_cfa_register 6
	.seh_endprologue
	movq	%rcx, 16(%rbp)
	.loc 10 50 37
	movq	16(%rbp), %rax
	.loc 10 50 40
	popq	%rbp
	.cfi_restore 6
	.cfi_def_cfa 7, 8
	ret
	.cfi_endproc
.LFE3065:
	.seh_endproc
	.section	.text$_ZSt9addressofIKcEPT_RS1_,"x"
	.linkonce discard
	.globl	_ZSt9addressofIKcEPT_RS1_
	.def	_ZSt9addressofIKcEPT_RS1_;	.scl	2;	.type	32;	.endef
	.seh_proc	_ZSt9addressofIKcEPT_RS1_
_ZSt9addressofIKcEPT_RS1_:
.LFB3068:
	.loc 10 145 5
	.cfi_startproc
	pushq	%rbp
	.seh_pushreg	%rbp
	.cfi_def_cfa_offset 16
	.cfi_offset 6, -16
	movq	%rsp, %rbp
	.seh_setframe	%rbp, 0
	.cfi_def_cfa_register 6
	subq	$32, %rsp
	.seh_stackalloc	32
	.seh_endprologue
	movq	%rcx, 16(%rbp)
	.loc 10 146 30
	movq	16(%rbp), %rax
	movq	%rax, %rcx
	call	_ZSt11__addressofIKcEPT_RS1_
	.loc 10 146 37
	addq	$32, %rsp
	popq	%rbp
	.cfi_restore 6
	.cfi_def_cfa 7, 8
	ret
	.cfi_endproc
.LFE3068:
	.seh_endproc
	.section	.text$_ZNSt15__new_allocatorIcE8allocateEyPKv,"x"
	.linkonce discard
	.align 2
	.globl	_ZNSt15__new_allocatorIcE8allocateEyPKv
	.def	_ZNSt15__new_allocatorIcE8allocateEyPKv;	.scl	2;	.type	32;	.endef
	.seh_proc	_ZNSt15__new_allocatorIcE8allocateEyPKv
_ZNSt15__new_allocatorIcE8allocateEyPKv:
.LFB3098:
	.loc 8 122 7
	.cfi_startproc
	pushq	%rbp
	.seh_pushreg	%rbp
	.cfi_def_cfa_offset 16
	.cfi_offset 6, -16
	movq	%rsp, %rbp
	.seh_setframe	%rbp, 0
	.cfi_def_cfa_register 6
	subq	$48, %rsp
	.seh_stackalloc	48
	.seh_endprologue
	movq	%rcx, 16(%rbp)
	movq	%rdx, 24(%rbp)
	movq	%r8, 32(%rbp)
	movq	16(%rbp), %rax
	movq	%rax, -8(%rbp)
.LBB234:
.LBB235:
	.loc 8 229 55
	movabsq	$9223372036854775807, %rax
.LBE235:
.LBE234:
	.loc 8 130 27 discriminator 1
	cmpq	24(%rbp), %rax
	setb	%al
	.loc 8 130 22 discriminator 1
	movzbl	%al, %eax
	.loc 8 130 22 is_stmt 0 discriminator 2
	testl	%eax, %eax
	setne	%al
	.loc 8 130 2 is_stmt 1 discriminator 2
	testb	%al, %al
	je	.L170
	.loc 8 136 28
	call	_ZSt17__throw_bad_allocv
.L170:
	.loc 8 147 41
	movq	24(%rbp), %rax
	movq	%rax, %rcx
	call	_Znwy
	.loc 8 147 60
	nop
	.loc 8 148 7
	addq	$48, %rsp
	popq	%rbp
	.cfi_restore 6
	.cfi_def_cfa 7, 8
	ret
	.cfi_endproc
.LFE3098:
	.seh_endproc
	.section	.text$_ZNSt15__new_allocatorIcE10deallocateEPcy,"x"
	.linkonce discard
	.align 2
	.globl	_ZNSt15__new_allocatorIcE10deallocateEPcy
	.def	_ZNSt15__new_allocatorIcE10deallocateEPcy;	.scl	2;	.type	32;	.endef
	.seh_proc	_ZNSt15__new_allocatorIcE10deallocateEPcy
_ZNSt15__new_allocatorIcE10deallocateEPcy:
.LFB3099:
	.loc 8 152 7
	.cfi_startproc
	pushq	%rbp
	.seh_pushreg	%rbp
	.cfi_def_cfa_offset 16
	.cfi_offset 6, -16
	movq	%rsp, %rbp
	.seh_setframe	%rbp, 0
	.cfi_def_cfa_register 6
	subq	$32, %rsp
	.seh_stackalloc	32
	.seh_endprologue
	movq	%rcx, 16(%rbp)
	movq	%rdx, 24(%rbp)
	movq	%r8, 32(%rbp)
	.loc 8 168 19
	movq	32(%rbp), %rdx
	movq	24(%rbp), %rax
	movq	%rax, %rcx
	call	_ZdlPvy
	nop
	.loc 8 169 7
	addq	$32, %rsp
	popq	%rbp
	.cfi_restore 6
	.cfi_def_cfa 7, 8
	ret
	.cfi_endproc
.LFE3099:
	.seh_endproc
	.section	.text$_ZSt11__addressofIKcEPT_RS1_,"x"
	.linkonce discard
	.globl	_ZSt11__addressofIKcEPT_RS1_
	.def	_ZSt11__addressofIKcEPT_RS1_;	.scl	2;	.type	32;	.endef
	.seh_proc	_ZSt11__addressofIKcEPT_RS1_
_ZSt11__addressofIKcEPT_RS1_:
.LFB3100:
	.loc 10 49 5
	.cfi_startproc
	pushq	%rbp
	.seh_pushreg	%rbp
	.cfi_def_cfa_offset 16
	.cfi_offset 6, -16
	movq	%rsp, %rbp
	.seh_setframe	%rbp, 0
	.cfi_def_cfa_register 6
	.seh_endprologue
	movq	%rcx, 16(%rbp)
	.loc 10 50 37
	movq	16(%rbp), %rax
	.loc 10 50 40
	popq	%rbp
	.cfi_restore 6
	.cfi_def_cfa 7, 8
	ret
	.cfi_endproc
.LFE3100:
	.seh_endproc
	.section .rdata,"dr"
_ZNSt8__detail30__integer_to_chars_is_unsignedIjEE:
	.byte	1
_ZNSt8__detail30__integer_to_chars_is_unsignedImEE:
	.byte	1
_ZNSt8__detail30__integer_to_chars_is_unsignedIyEE:
	.byte	1
	.text
.Letext0:
	.file 17 "D:/Program Files/JetBrains/CLion 2024.2.3/bin/mingw/x86_64-w64-mingw32/include/corecrt.h"
	.file 18 "D:/Program Files/JetBrains/CLion 2024.2.3/bin/mingw/x86_64-w64-mingw32/include/locale.h"
	.file 19 "D:/Program Files/JetBrains/CLion 2024.2.3/bin/mingw/x86_64-w64-mingw32/include/wchar.h"
	.file 20 "D:/Program Files/JetBrains/CLion 2024.2.3/bin/mingw/lib/gcc/x86_64-w64-mingw32/13.1.0/include/c++/cwchar"
	.file 21 "D:/Program Files/JetBrains/CLion 2024.2.3/bin/mingw/lib/gcc/x86_64-w64-mingw32/13.1.0/include/c++/bits/exception_ptr.h"
	.file 22 "D:/Program Files/JetBrains/CLion 2024.2.3/bin/mingw/lib/gcc/x86_64-w64-mingw32/13.1.0/include/c++/concepts"
	.file 23 "D:/Program Files/JetBrains/CLion 2024.2.3/bin/mingw/lib/gcc/x86_64-w64-mingw32/13.1.0/include/c++/bits/iterator_concepts.h"
	.file 24 "D:/Program Files/JetBrains/CLion 2024.2.3/bin/mingw/lib/gcc/x86_64-w64-mingw32/13.1.0/include/c++/compare"
	.file 25 "D:/Program Files/JetBrains/CLion 2024.2.3/bin/mingw/lib/gcc/x86_64-w64-mingw32/13.1.0/include/c++/bits/charconv.h"
	.file 26 "D:/Program Files/JetBrains/CLion 2024.2.3/bin/mingw/lib/gcc/x86_64-w64-mingw32/13.1.0/include/c++/clocale"
	.file 27 "D:/Program Files/JetBrains/CLion 2024.2.3/bin/mingw/lib/gcc/x86_64-w64-mingw32/13.1.0/include/c++/debug/debug.h"
	.file 28 "D:/Program Files/JetBrains/CLion 2024.2.3/bin/mingw/lib/gcc/x86_64-w64-mingw32/13.1.0/include/c++/numbers"
	.file 29 "D:/Program Files/JetBrains/CLion 2024.2.3/bin/mingw/lib/gcc/x86_64-w64-mingw32/13.1.0/include/c++/string_view"
	.file 30 "D:/Program Files/JetBrains/CLion 2024.2.3/bin/mingw/lib/gcc/x86_64-w64-mingw32/13.1.0/include/c++/cstdlib"
	.file 31 "D:/Program Files/JetBrains/CLion 2024.2.3/bin/mingw/lib/gcc/x86_64-w64-mingw32/13.1.0/include/c++/cstdio"
	.file 32 "D:/Program Files/JetBrains/CLion 2024.2.3/bin/mingw/lib/gcc/x86_64-w64-mingw32/13.1.0/include/c++/initializer_list"
	.file 33 "D:/Program Files/JetBrains/CLion 2024.2.3/bin/mingw/lib/gcc/x86_64-w64-mingw32/13.1.0/include/c++/cstddef"
	.file 34 "D:/Program Files/JetBrains/CLion 2024.2.3/bin/mingw/lib/gcc/x86_64-w64-mingw32/13.1.0/include/c++/bits/memory_resource.h"
	.file 35 "D:/Program Files/JetBrains/CLion 2024.2.3/bin/mingw/lib/gcc/x86_64-w64-mingw32/13.1.0/include/c++/bits/stringfwd.h"
	.file 36 "D:/Program Files/JetBrains/CLion 2024.2.3/bin/mingw/lib/gcc/x86_64-w64-mingw32/13.1.0/include/c++/system_error"
	.file 37 "D:/Program Files/JetBrains/CLion 2024.2.3/bin/mingw/lib/gcc/x86_64-w64-mingw32/13.1.0/include/c++/cwctype"
	.file 38 "D:/Program Files/JetBrains/CLion 2024.2.3/bin/mingw/lib/gcc/x86_64-w64-mingw32/13.1.0/include/c++/bits/ostream.tcc"
	.file 39 "D:/Program Files/JetBrains/CLion 2024.2.3/bin/mingw/lib/gcc/x86_64-w64-mingw32/13.1.0/include/c++/ostream"
	.file 40 "D:/Program Files/JetBrains/CLion 2024.2.3/bin/mingw/lib/gcc/x86_64-w64-mingw32/13.1.0/include/c++/iosfwd"
	.file 41 "D:/Program Files/JetBrains/CLion 2024.2.3/bin/mingw/lib/gcc/x86_64-w64-mingw32/13.1.0/include/c++/bits/functexcept.h"
	.file 42 "D:/Program Files/JetBrains/CLion 2024.2.3/bin/mingw/x86_64-w64-mingw32/include/swprintf.inl"
	.file 43 "D:/Program Files/JetBrains/CLion 2024.2.3/bin/mingw/lib/gcc/x86_64-w64-mingw32/13.1.0/include/c++/bits/predefined_ops.h"
	.file 44 "D:/Program Files/JetBrains/CLion 2024.2.3/bin/mingw/lib/gcc/x86_64-w64-mingw32/13.1.0/include/c++/bits/stl_iterator.h"
	.file 45 "D:/Program Files/JetBrains/CLion 2024.2.3/bin/mingw/x86_64-w64-mingw32/include/stddef.h"
	.file 46 "D:/Program Files/JetBrains/CLion 2024.2.3/bin/mingw/x86_64-w64-mingw32/include/stdio.h"
	.file 47 "D:/Program Files/JetBrains/CLion 2024.2.3/bin/mingw/x86_64-w64-mingw32/include/stdlib.h"
	.file 48 "D:/Program Files/JetBrains/CLion 2024.2.3/bin/mingw/x86_64-w64-mingw32/include/process.h"
	.file 49 "D:/Program Files/JetBrains/CLion 2024.2.3/bin/mingw/x86_64-w64-mingw32/include/wctype.h"
	.file 50 "D:/Program Files/JetBrains/CLion 2024.2.3/bin/mingw/lib/gcc/x86_64-w64-mingw32/13.1.0/include/c++/bits/ranges_cmp.h"
	.file 51 "D:/Program Files/JetBrains/CLion 2024.2.3/bin/mingw/lib/gcc/x86_64-w64-mingw32/13.1.0/include/c++/iostream"
	.section	.rdata$.refptr._ZSt4endlIcSt11char_traitsIcEERSt13basic_ostreamIT_T0_ES6_, "dr"
	.globl	.refptr._ZSt4endlIcSt11char_traitsIcEERSt13basic_ostreamIT_T0_ES6_
	.linkonce	discard
.refptr._ZSt4endlIcSt11char_traitsIcEERSt13basic_ostreamIT_T0_ES6_:
	.quad	_ZSt4endlIcSt11char_traitsIcEERSt13basic_ostreamIT_T0_ES6_
	.section	.rdata$.refptr._ZSt4cout, "dr"
	.globl	.refptr._ZSt4cout
	.linkonce	discard
.refptr._ZSt4cout:
	.quad	_ZSt4cout
