	.file	"\346\236\204\351\200\240\345\207\275\346\225\260\345\222\214\346\236\220\346\236\204\345\207\275\346\225\260.cpp"
	.text
.Ltext0:
	.cfi_sections	.debug_frame
	.file 0 "D://Workspace//CPP//CppLearning//cmake-build-debug" "D:/Workspace/CPP/CppLearning/class/\346\236\204\351\200\240\345\207\275\346\225\260\345\222\214\346\236\220\346\236\204\345\207\275\346\225\260.cpp"
	.section .rdata,"dr"
.LC0:
	.ascii "Bro()\346\236\204\351\200\240\345\207\275\346\225\260\0"
	.section	.text$_ZN3BroC1Ev,"x"
	.linkonce discard
	.align 2
	.globl	_ZN3BroC1Ev
	.def	_ZN3BroC1Ev;	.scl	2;	.type	32;	.endef
	.seh_proc	_ZN3BroC1Ev
_ZN3BroC1Ev:
.LFB2445:
	.file 1 "D:/Workspace/CPP/CppLearning/class/\346\236\204\351\200\240\345\207\275\346\225\260\345\222\214\346\236\220\346\236\204\345\207\275\346\225\260.cpp"
	.loc 1 22 5
	.cfi_startproc
	pushq	%rbp
	.seh_pushreg	%rbp
	.cfi_def_cfa_offset 16
	.cfi_offset 6, -16
	movq	%rsp, %rbp
	.seh_setframe	%rbp, 0
	.cfi_def_cfa_register 6
	subq	$32, %rsp
	.seh_stackalloc	32
	.seh_endprologue
	movq	%rcx, 16(%rbp)
.LBB2:
	.loc 1 23 15
	leaq	.LC0(%rip), %rax
	movq	%rax, %rdx
	movq	.refptr._ZSt4cout(%rip), %rax
	movq	%rax, %rcx
	call	_ZStlsISt11char_traitsIcEERSt13basic_ostreamIcT_ES5_PKc
	movq	%rax, %rcx
	.loc 1 23 36 discriminator 1
	movq	.refptr._ZSt4endlIcSt11char_traitsIcEERSt13basic_ostreamIT_T0_ES6_(%rip), %rax
	movq	%rax, %rdx
	call	_ZNSolsEPFRSoS_E
.LBE2:
	.loc 1 24 5
	nop
	addq	$32, %rsp
	popq	%rbp
	.cfi_restore 6
	.cfi_def_cfa 7, 8
	ret
	.cfi_endproc
.LFE2445:
	.seh_endproc
	.section .rdata,"dr"
.LC1:
	.ascii "Bro(int a)\346\234\211\345\217\202\346\236\204\351\200\240\345\207\275\346\225\260\0"
	.section	.text$_ZN3BroC1Ei,"x"
	.linkonce discard
	.align 2
	.globl	_ZN3BroC1Ei
	.def	_ZN3BroC1Ei;	.scl	2;	.type	32;	.endef
	.seh_proc	_ZN3BroC1Ei
_ZN3BroC1Ei:
.LFB2448:
	.loc 1 25 5
	.cfi_startproc
	pushq	%rbp
	.seh_pushreg	%rbp
	.cfi_def_cfa_offset 16
	.cfi_offset 6, -16
	movq	%rsp, %rbp
	.seh_setframe	%rbp, 0
	.cfi_def_cfa_register 6
	subq	$32, %rsp
	.seh_stackalloc	32
	.seh_endprologue
	movq	%rcx, 16(%rbp)
	movl	%edx, 24(%rbp)
.LBB3:
	.loc 1 26 13
	movq	16(%rbp), %rax
	movl	24(%rbp), %edx
	movl	%edx, (%rax)
	.loc 1 27 15
	leaq	.LC1(%rip), %rax
	movq	%rax, %rdx
	movq	.refptr._ZSt4cout(%rip), %rax
	movq	%rax, %rcx
	call	_ZStlsISt11char_traitsIcEERSt13basic_ostreamIcT_ES5_PKc
	movq	%rax, %rcx
	.loc 1 27 47 discriminator 1
	movq	.refptr._ZSt4endlIcSt11char_traitsIcEERSt13basic_ostreamIT_T0_ES6_(%rip), %rax
	movq	%rax, %rdx
	call	_ZNSolsEPFRSoS_E
.LBE3:
	.loc 1 28 5
	nop
	addq	$32, %rsp
	popq	%rbp
	.cfi_restore 6
	.cfi_def_cfa 7, 8
	ret
	.cfi_endproc
.LFE2448:
	.seh_endproc
	.section .rdata,"dr"
	.align 8
.LC2:
	.ascii "Bro(const Bro& b)\346\213\267\350\264\235\346\236\204\351\200\240\345\207\275\346\225\260\0"
	.section	.text$_ZN3BroC1ERKS_,"x"
	.linkonce discard
	.align 2
	.globl	_ZN3BroC1ERKS_
	.def	_ZN3BroC1ERKS_;	.scl	2;	.type	32;	.endef
	.seh_proc	_ZN3BroC1ERKS_
_ZN3BroC1ERKS_:
.LFB2451:
	.loc 1 30 5
	.cfi_startproc
	pushq	%rbp
	.seh_pushreg	%rbp
	.cfi_def_cfa_offset 16
	.cfi_offset 6, -16
	movq	%rsp, %rbp
	.seh_setframe	%rbp, 0
	.cfi_def_cfa_register 6
	subq	$32, %rsp
	.seh_stackalloc	32
	.seh_endprologue
	movq	%rcx, 16(%rbp)
	movq	%rdx, 24(%rbp)
.LBB4:
	.loc 1 31 15
	leaq	.LC2(%rip), %rax
	movq	%rax, %rdx
	movq	.refptr._ZSt4cout(%rip), %rax
	movq	%rax, %rcx
	call	_ZStlsISt11char_traitsIcEERSt13basic_ostreamIcT_ES5_PKc
	movq	%rax, %rcx
	.loc 1 31 54 discriminator 1
	movq	.refptr._ZSt4endlIcSt11char_traitsIcEERSt13basic_ostreamIT_T0_ES6_(%rip), %rax
	movq	%rax, %rdx
	call	_ZNSolsEPFRSoS_E
.LBE4:
	.loc 1 32 5
	nop
	addq	$32, %rsp
	popq	%rbp
	.cfi_restore 6
	.cfi_def_cfa 7, 8
	ret
	.cfi_endproc
.LFE2451:
	.seh_endproc
	.section .rdata,"dr"
.LC3:
	.ascii "~Bro()\350\260\203\347\224\250\0"
	.section	.text$_ZN3BroD1Ev,"x"
	.linkonce discard
	.align 2
	.globl	_ZN3BroD1Ev
	.def	_ZN3BroD1Ev;	.scl	2;	.type	32;	.endef
	.seh_proc	_ZN3BroD1Ev
_ZN3BroD1Ev:
.LFB2454:
	.loc 1 34 5
	.cfi_startproc
	pushq	%rbp
	.seh_pushreg	%rbp
	.cfi_def_cfa_offset 16
	.cfi_offset 6, -16
	movq	%rsp, %rbp
	.seh_setframe	%rbp, 0
	.cfi_def_cfa_register 6
	subq	$32, %rsp
	.seh_stackalloc	32
	.seh_endprologue
	movq	%rcx, 16(%rbp)
.LBB5:
	.loc 1 36 15
	leaq	.LC3(%rip), %rax
	movq	%rax, %rdx
	movq	.refptr._ZSt4cout(%rip), %rax
	movq	%rax, %rcx
	call	_ZStlsISt11char_traitsIcEERSt13basic_ostreamIcT_ES5_PKc
	movq	%rax, %rcx
	.loc 1 36 31 discriminator 1
	movq	.refptr._ZSt4endlIcSt11char_traitsIcEERSt13basic_ostreamIT_T0_ES6_(%rip), %rax
	movq	%rax, %rdx
	call	_ZNSolsEPFRSoS_E
.LBE5:
	.loc 1 37 5
	nop
	addq	$32, %rsp
	popq	%rbp
	.cfi_restore 6
	.cfi_def_cfa 7, 8
	ret
	.cfi_endproc
.LFE2454:
	.def	__gxx_personality_seh0;	.scl	2;	.type	32;	.endef
	.seh_handler	__gxx_personality_seh0, @unwind, @except
	.seh_handlerdata
.LLSDA2454:
	.byte	0xff
	.byte	0xff
	.byte	0x1
	.uleb128 .LLSDACSE2454-.LLSDACSB2454
.LLSDACSB2454:
.LLSDACSE2454:
	.section	.text$_ZN3BroD1Ev,"x"
	.linkonce discard
	.seh_endproc
	.text
	.globl	_Z6test03v
	.def	_Z6test03v;	.scl	2;	.type	32;	.endef
	.seh_proc	_Z6test03v
_Z6test03v:
.LFB2455:
	.loc 1 40 15
	.cfi_startproc
	pushq	%rbp
	.seh_pushreg	%rbp
	.cfi_def_cfa_offset 16
	.cfi_offset 6, -16
	movq	%rsp, %rbp
	.seh_setframe	%rbp, 0
	.cfi_def_cfa_register 6
	subq	$48, %rsp
	.seh_stackalloc	48
	.seh_endprologue
	.loc 1 41 9
	leaq	-4(%rbp), %rax
	movq	%rax, %rcx
	call	_ZN3BroC1Ev
	.loc 1 43 1
	leaq	-4(%rbp), %rax
	movq	%rax, %rcx
	call	_ZN3BroD1Ev
	nop
	addq	$48, %rsp
	popq	%rbp
	.cfi_restore 6
	.cfi_def_cfa 7, 8
	ret
	.cfi_endproc
.LFE2455:
	.seh_endproc
	.section .rdata,"dr"
.LC4:
	.ascii "aaa\0"
	.text
	.globl	_Z6main14v
	.def	_Z6main14v;	.scl	2;	.type	32;	.endef
	.seh_proc	_Z6main14v
_Z6main14v:
.LFB2456:
	.loc 1 45 14
	.cfi_startproc
	pushq	%rbp
	.seh_pushreg	%rbp
	.cfi_def_cfa_offset 16
	.cfi_offset 6, -16
	pushq	%rbx
	.seh_pushreg	%rbx
	.cfi_def_cfa_offset 24
	.cfi_offset 3, -24
	subq	$72, %rsp
	.seh_stackalloc	72
	.cfi_def_cfa_offset 96
	leaq	64(%rsp), %rbp
	.seh_setframe	%rbp, 64
	.cfi_def_cfa 6, 32
	.seh_endprologue
.LEHB0:
	.loc 1 46 11
	call	_Z6test03v
	.loc 1 47 13
	leaq	-8(%rbp), %rax
	movl	$10, %edx
	movq	%rax, %rcx
	call	_ZN3BroC1Ei
.LEHE0:
	.loc 1 48 13
	leaq	-8(%rbp), %rdx
	leaq	-12(%rbp), %rax
	movq	%rax, %rcx
.LEHB1:
	call	_ZN3BroC1ERKS_
.LEHE1:
	.loc 1 51 18
	leaq	-16(%rbp), %rax
	movq	%rax, %rcx
.LEHB2:
	call	_ZN3BroC1Ev
.LEHE2:
	.loc 1 52 20
	leaq	-20(%rbp), %rax
	movl	$10, %edx
	movq	%rax, %rcx
.LEHB3:
	call	_ZN3BroC1Ei
.LEHE3:
	.loc 1 53 14
	leaq	-20(%rbp), %rdx
	leaq	-24(%rbp), %rax
	movq	%rax, %rcx
.LEHB4:
	call	_ZN3BroC1ERKS_
.LEHE4:
	.loc 1 57 5
	leaq	-4(%rbp), %rax
	movl	$10, %edx
	movq	%rax, %rcx
.LEHB5:
	call	_ZN3BroC1Ei
	.loc 1 57 5 is_stmt 0 discriminator 2
	leaq	-4(%rbp), %rax
	movq	%rax, %rcx
	call	_ZN3BroD1Ev
	.loc 1 58 11 is_stmt 1
	leaq	.LC4(%rip), %rax
	movq	%rax, %rdx
	movq	.refptr._ZSt4cout(%rip), %rax
	movq	%rax, %rcx
	call	_ZStlsISt11char_traitsIcEERSt13basic_ostreamIcT_ES5_PKc
	movq	%rax, %rcx
	.loc 1 58 18 discriminator 1
	movq	.refptr._ZSt4endlIcSt11char_traitsIcEERSt13basic_ostreamIT_T0_ES6_(%rip), %rax
	movq	%rax, %rdx
	call	_ZNSolsEPFRSoS_E
	.loc 1 61 13
	leaq	-28(%rbp), %rax
	movl	$10, %edx
	movq	%rax, %rcx
	call	_ZN3BroC1Ei
.LEHE5:
	.loc 1 62 14
	leaq	-28(%rbp), %rdx
	leaq	-32(%rbp), %rax
	movq	%rax, %rcx
.LEHB6:
	call	_ZN3BroC1ERKS_
.LEHE6:
	.loc 1 64 12
	movl	$0, %ebx
	.loc 1 65 1
	leaq	-32(%rbp), %rax
	movq	%rax, %rcx
	call	_ZN3BroD1Ev
	.loc 1 65 1 is_stmt 0 discriminator 1
	leaq	-28(%rbp), %rax
	movq	%rax, %rcx
	call	_ZN3BroD1Ev
	.loc 1 65 1 discriminator 2
	leaq	-24(%rbp), %rax
	movq	%rax, %rcx
	call	_ZN3BroD1Ev
	.loc 1 65 1 discriminator 3
	leaq	-20(%rbp), %rax
	movq	%rax, %rcx
	call	_ZN3BroD1Ev
	.loc 1 65 1 discriminator 4
	leaq	-16(%rbp), %rax
	movq	%rax, %rcx
	call	_ZN3BroD1Ev
	.loc 1 65 1 discriminator 5
	leaq	-12(%rbp), %rax
	movq	%rax, %rcx
	call	_ZN3BroD1Ev
	.loc 1 65 1 discriminator 6
	leaq	-8(%rbp), %rax
	movq	%rax, %rcx
	call	_ZN3BroD1Ev
	.loc 1 64 12 is_stmt 1
	movl	%ebx, %eax
	jmp	.L20
.L19:
	.loc 1 65 1
	movq	%rax, %rbx
	leaq	-28(%rbp), %rax
	movq	%rax, %rcx
	call	_ZN3BroD1Ev
	jmp	.L9
.L18:
	movq	%rax, %rbx
.L9:
	leaq	-24(%rbp), %rax
	movq	%rax, %rcx
	call	_ZN3BroD1Ev
	jmp	.L10
.L17:
	movq	%rax, %rbx
.L10:
	leaq	-20(%rbp), %rax
	movq	%rax, %rcx
	call	_ZN3BroD1Ev
	jmp	.L11
.L16:
	movq	%rax, %rbx
.L11:
	leaq	-16(%rbp), %rax
	movq	%rax, %rcx
	call	_ZN3BroD1Ev
	jmp	.L12
.L15:
	movq	%rax, %rbx
.L12:
	leaq	-12(%rbp), %rax
	movq	%rax, %rcx
	call	_ZN3BroD1Ev
	jmp	.L13
.L14:
	movq	%rax, %rbx
.L13:
	leaq	-8(%rbp), %rax
	movq	%rax, %rcx
	call	_ZN3BroD1Ev
	movq	%rbx, %rax
	movq	%rax, %rcx
.LEHB7:
	call	_Unwind_Resume
.LEHE7:
.L20:
	addq	$72, %rsp
	popq	%rbx
	.cfi_restore 3
	popq	%rbp
	.cfi_restore 6
	.cfi_def_cfa 7, -56
	ret
	.cfi_endproc
.LFE2456:
	.seh_handler	__gxx_personality_seh0, @unwind, @except
	.seh_handlerdata
.LLSDA2456:
	.byte	0xff
	.byte	0xff
	.byte	0x1
	.uleb128 .LLSDACSE2456-.LLSDACSB2456
.LLSDACSB2456:
	.uleb128 .LEHB0-.LFB2456
	.uleb128 .LEHE0-.LEHB0
	.uleb128 0
	.uleb128 0
	.uleb128 .LEHB1-.LFB2456
	.uleb128 .LEHE1-.LEHB1
	.uleb128 .L14-.LFB2456
	.uleb128 0
	.uleb128 .LEHB2-.LFB2456
	.uleb128 .LEHE2-.LEHB2
	.uleb128 .L15-.LFB2456
	.uleb128 0
	.uleb128 .LEHB3-.LFB2456
	.uleb128 .LEHE3-.LEHB3
	.uleb128 .L16-.LFB2456
	.uleb128 0
	.uleb128 .LEHB4-.LFB2456
	.uleb128 .LEHE4-.LEHB4
	.uleb128 .L17-.LFB2456
	.uleb128 0
	.uleb128 .LEHB5-.LFB2456
	.uleb128 .LEHE5-.LEHB5
	.uleb128 .L18-.LFB2456
	.uleb128 0
	.uleb128 .LEHB6-.LFB2456
	.uleb128 .LEHE6-.LEHB6
	.uleb128 .L19-.LFB2456
	.uleb128 0
	.uleb128 .LEHB7-.LFB2456
	.uleb128 .LEHE7-.LEHB7
	.uleb128 0
	.uleb128 0
.LLSDACSE2456:
	.text
	.seh_endproc
	.section .rdata,"dr"
_ZNSt8__detail30__integer_to_chars_is_unsignedIjEE:
	.byte	1
_ZNSt8__detail30__integer_to_chars_is_unsignedImEE:
	.byte	1
_ZNSt8__detail30__integer_to_chars_is_unsignedIyEE:
	.byte	1
	.text
.Letext0:
	.file 2 "D:/Program Files/JetBrains/CLion 2024.2.3/bin/mingw/x86_64-w64-mingw32/include/corecrt.h"
	.file 3 "D:/Program Files/JetBrains/CLion 2024.2.3/bin/mingw/x86_64-w64-mingw32/include/locale.h"
	.file 4 "D:/Program Files/JetBrains/CLion 2024.2.3/bin/mingw/x86_64-w64-mingw32/include/wchar.h"
	.file 5 "D:/Program Files/JetBrains/CLion 2024.2.3/bin/mingw/lib/gcc/x86_64-w64-mingw32/13.1.0/include/c++/cwchar"
	.file 6 "D:/Program Files/JetBrains/CLion 2024.2.3/bin/mingw/lib/gcc/x86_64-w64-mingw32/13.1.0/include/c++/x86_64-w64-mingw32/bits/c++config.h"
	.file 7 "D:/Program Files/JetBrains/CLion 2024.2.3/bin/mingw/lib/gcc/x86_64-w64-mingw32/13.1.0/include/c++/type_traits"
	.file 8 "D:/Program Files/JetBrains/CLion 2024.2.3/bin/mingw/lib/gcc/x86_64-w64-mingw32/13.1.0/include/c++/bits/exception_ptr.h"
	.file 9 "D:/Program Files/JetBrains/CLion 2024.2.3/bin/mingw/lib/gcc/x86_64-w64-mingw32/13.1.0/include/c++/concepts"
	.file 10 "D:/Program Files/JetBrains/CLion 2024.2.3/bin/mingw/lib/gcc/x86_64-w64-mingw32/13.1.0/include/c++/bits/iterator_concepts.h"
	.file 11 "D:/Program Files/JetBrains/CLion 2024.2.3/bin/mingw/lib/gcc/x86_64-w64-mingw32/13.1.0/include/c++/compare"
	.file 12 "D:/Program Files/JetBrains/CLion 2024.2.3/bin/mingw/lib/gcc/x86_64-w64-mingw32/13.1.0/include/c++/bits/charconv.h"
	.file 13 "D:/Program Files/JetBrains/CLion 2024.2.3/bin/mingw/lib/gcc/x86_64-w64-mingw32/13.1.0/include/c++/bits/char_traits.h"
	.file 14 "D:/Program Files/JetBrains/CLion 2024.2.3/bin/mingw/lib/gcc/x86_64-w64-mingw32/13.1.0/include/c++/clocale"
	.file 15 "D:/Program Files/JetBrains/CLion 2024.2.3/bin/mingw/lib/gcc/x86_64-w64-mingw32/13.1.0/include/c++/debug/debug.h"
	.file 16 "D:/Program Files/JetBrains/CLion 2024.2.3/bin/mingw/lib/gcc/x86_64-w64-mingw32/13.1.0/include/c++/numbers"
	.file 17 "D:/Program Files/JetBrains/CLion 2024.2.3/bin/mingw/lib/gcc/x86_64-w64-mingw32/13.1.0/include/c++/cstdlib"
	.file 18 "D:/Program Files/JetBrains/CLion 2024.2.3/bin/mingw/lib/gcc/x86_64-w64-mingw32/13.1.0/include/c++/cstdio"
	.file 19 "D:/Program Files/JetBrains/CLion 2024.2.3/bin/mingw/lib/gcc/x86_64-w64-mingw32/13.1.0/include/c++/cstddef"
	.file 20 "D:/Program Files/JetBrains/CLion 2024.2.3/bin/mingw/lib/gcc/x86_64-w64-mingw32/13.1.0/include/c++/bits/memory_resource.h"
	.file 21 "D:/Program Files/JetBrains/CLion 2024.2.3/bin/mingw/lib/gcc/x86_64-w64-mingw32/13.1.0/include/c++/system_error"
	.file 22 "D:/Program Files/JetBrains/CLion 2024.2.3/bin/mingw/lib/gcc/x86_64-w64-mingw32/13.1.0/include/c++/cwctype"
	.file 23 "D:/Program Files/JetBrains/CLion 2024.2.3/bin/mingw/lib/gcc/x86_64-w64-mingw32/13.1.0/include/c++/iosfwd"
	.file 24 "D:/Program Files/JetBrains/CLion 2024.2.3/bin/mingw/lib/gcc/x86_64-w64-mingw32/13.1.0/include/c++/ostream"
	.file 25 "D:/Program Files/JetBrains/CLion 2024.2.3/bin/mingw/x86_64-w64-mingw32/include/swprintf.inl"
	.file 26 "D:/Program Files/JetBrains/CLion 2024.2.3/bin/mingw/lib/gcc/x86_64-w64-mingw32/13.1.0/include/c++/bits/predefined_ops.h"
	.file 27 "D:/Program Files/JetBrains/CLion 2024.2.3/bin/mingw/x86_64-w64-mingw32/include/stddef.h"
	.file 28 "D:/Program Files/JetBrains/CLion 2024.2.3/bin/mingw/x86_64-w64-mingw32/include/stdio.h"
	.file 29 "D:/Program Files/JetBrains/CLion 2024.2.3/bin/mingw/lib/gcc/x86_64-w64-mingw32/13.1.0/include/c++/bits/ptr_traits.h"
	.file 30 "D:/Program Files/JetBrains/CLion 2024.2.3/bin/mingw/x86_64-w64-mingw32/include/stdlib.h"
	.file 31 "D:/Program Files/JetBrains/CLion 2024.2.3/bin/mingw/x86_64-w64-mingw32/include/process.h"
	.file 32 "D:/Program Files/JetBrains/CLion 2024.2.3/bin/mingw/x86_64-w64-mingw32/include/wctype.h"
	.file 33 "D:/Program Files/JetBrains/CLion 2024.2.3/bin/mingw/lib/gcc/x86_64-w64-mingw32/13.1.0/include/c++/bits/ranges_cmp.h"
	.file 34 "D:/Program Files/JetBrains/CLion 2024.2.3/bin/mingw/lib/gcc/x86_64-w64-mingw32/13.1.0/include/c++/iostream"
	.section	.rdata$.refptr._ZSt4endlIcSt11char_traitsIcEERSt13basic_ostreamIT_T0_ES6_, "dr"
	.globl	.refptr._ZSt4endlIcSt11char_traitsIcEERSt13basic_ostreamIT_T0_ES6_
	.linkonce	discard
.refptr._ZSt4endlIcSt11char_traitsIcEERSt13basic_ostreamIT_T0_ES6_:
	.quad	_ZSt4endlIcSt11char_traitsIcEERSt13basic_ostreamIT_T0_ES6_
	.section	.rdata$.refptr._ZSt4cout, "dr"
	.globl	.refptr._ZSt4cout
	.linkonce	discard
.refptr._ZSt4cout:
	.quad	_ZSt4cout
