	.file	"\347\261\273\345\257\271\350\261\241\344\275\234\344\270\272\347\261\273\346\210\220\345\221\230.cpp"
	.text
.Ltext0:
	.cfi_sections	.debug_frame
	.file 0 "D://Workspace//CPP//CppLearning//cmake-build-debug" "D:/Workspace/CPP/CppLearning/class/\347\261\273\345\257\271\350\261\241\344\275\234\344\270\272\347\261\273\346\210\220\345\221\230.cpp"
	.section	.text$_ZSt23__is_constant_evaluatedv,"x"
	.linkonce discard
	.globl	_ZSt23__is_constant_evaluatedv
	.def	_ZSt23__is_constant_evaluatedv;	.scl	2;	.type	32;	.endef
	.seh_proc	_ZSt23__is_constant_evaluatedv
_ZSt23__is_constant_evaluatedv:
.LFB1:
	.file 1 "D:/Program Files/JetBrains/CLion 2024.2.3/bin/mingw/lib/gcc/x86_64-w64-mingw32/13.1.0/include/c++/x86_64-w64-mingw32/bits/c++config.h"
	.loc 1 541 3
	.cfi_startproc
	pushq	%rbp
	.seh_pushreg	%rbp
	.cfi_def_cfa_offset 16
	.cfi_offset 6, -16
	movq	%rsp, %rbp
	.seh_setframe	%rbp, 0
	.cfi_def_cfa_register 6
	.seh_endprologue
	.loc 1 547 44
	movl	$0, %eax
	.loc 1 551 3
	popq	%rbp
	.cfi_restore 6
	.cfi_def_cfa 7, 8
	ret
	.cfi_endproc
.LFE1:
	.seh_endproc
	.section	.text$_ZnwyPv,"x"
	.linkonce discard
	.globl	_ZnwyPv
	.def	_ZnwyPv;	.scl	2;	.type	32;	.endef
	.seh_proc	_ZnwyPv
_ZnwyPv:
.LFB95:
	.file 2 "D:/Program Files/JetBrains/CLion 2024.2.3/bin/mingw/lib/gcc/x86_64-w64-mingw32/13.1.0/include/c++/new"
	.loc 2 175 1
	.cfi_startproc
	pushq	%rbp
	.seh_pushreg	%rbp
	.cfi_def_cfa_offset 16
	.cfi_offset 6, -16
	movq	%rsp, %rbp
	.seh_setframe	%rbp, 0
	.cfi_def_cfa_register 6
	.seh_endprologue
	movq	%rcx, 16(%rbp)
	movq	%rdx, 24(%rbp)
	.loc 2 175 10
	movq	24(%rbp), %rax
	.loc 2 175 15
	popq	%rbp
	.cfi_restore 6
	.cfi_def_cfa 7, 8
	ret
	.cfi_endproc
.LFE95:
	.seh_endproc
	.section	.text$_ZSt21is_constant_evaluatedv,"x"
	.linkonce discard
	.globl	_ZSt21is_constant_evaluatedv
	.def	_ZSt21is_constant_evaluatedv;	.scl	2;	.type	32;	.endef
	.seh_proc	_ZSt21is_constant_evaluatedv
_ZSt21is_constant_evaluatedv:
.LFB113:
	.file 3 "D:/Program Files/JetBrains/CLion 2024.2.3/bin/mingw/lib/gcc/x86_64-w64-mingw32/13.1.0/include/c++/type_traits"
	.loc 3 3645 3
	.cfi_startproc
	pushq	%rbp
	.seh_pushreg	%rbp
	.cfi_def_cfa_offset 16
	.cfi_offset 6, -16
	movq	%rsp, %rbp
	.seh_setframe	%rbp, 0
	.cfi_def_cfa_register 6
	.seh_endprologue
	.loc 3 3649 44
	movl	$0, %eax
	.loc 3 3651 3
	popq	%rbp
	.cfi_restore 6
	.cfi_def_cfa 7, 8
	ret
	.cfi_endproc
.LFE113:
	.seh_endproc
	.section	.text$_ZNSt11char_traitsIcE6assignERcRKc,"x"
	.linkonce discard
	.globl	_ZNSt11char_traitsIcE6assignERcRKc
	.def	_ZNSt11char_traitsIcE6assignERcRKc;	.scl	2;	.type	32;	.endef
	.seh_proc	_ZNSt11char_traitsIcE6assignERcRKc
_ZNSt11char_traitsIcE6assignERcRKc:
.LFB303:
	.file 4 "D:/Program Files/JetBrains/CLion 2024.2.3/bin/mingw/lib/gcc/x86_64-w64-mingw32/13.1.0/include/c++/bits/char_traits.h"
	.loc 4 361 7
	.cfi_startproc
	pushq	%rbp
	.seh_pushreg	%rbp
	.cfi_def_cfa_offset 16
	.cfi_offset 6, -16
	movq	%rsp, %rbp
	.seh_setframe	%rbp, 0
	.cfi_def_cfa_register 6
	subq	$32, %rsp
	.seh_stackalloc	32
	.seh_endprologue
	movq	%rcx, 16(%rbp)
	movq	%rdx, 24(%rbp)
	.loc 4 364 34
	call	_ZSt23__is_constant_evaluatedv
	.loc 4 364 2 discriminator 1
	testb	%al, %al
	je	.L8
	.loc 4 365 21
	movq	24(%rbp), %rdx
	movq	16(%rbp), %rax
	movq	%rax, %rcx
	call	_ZSt12construct_atIcJRKcEEDTgsnwcvPvLi0E_T_pispcl7declvalIT0_EEEEPS3_DpOS4_
	.loc 4 369 7
	jmp	.L10
.L8:
	.loc 4 368 9
	movq	24(%rbp), %rax
	movzbl	(%rax), %edx
	.loc 4 368 7
	movq	16(%rbp), %rax
	movb	%dl, (%rax)
.L10:
	.loc 4 369 7
	nop
	addq	$32, %rsp
	popq	%rbp
	.cfi_restore 6
	.cfi_def_cfa 7, 8
	ret
	.cfi_endproc
.LFE303:
	.seh_endproc
	.section	.text$_ZNSt11char_traitsIcE6lengthEPKc,"x"
	.linkonce discard
	.globl	_ZNSt11char_traitsIcE6lengthEPKc
	.def	_ZNSt11char_traitsIcE6lengthEPKc;	.scl	2;	.type	32;	.endef
	.seh_proc	_ZNSt11char_traitsIcE6lengthEPKc
_ZNSt11char_traitsIcE6lengthEPKc:
.LFB307:
	.loc 4 403 7
	.cfi_startproc
	pushq	%rbp
	.seh_pushreg	%rbp
	.cfi_def_cfa_offset 16
	.cfi_offset 6, -16
	movq	%rsp, %rbp
	.seh_setframe	%rbp, 0
	.cfi_def_cfa_register 6
	subq	$32, %rsp
	.seh_stackalloc	32
	.seh_endprologue
	movq	%rcx, 16(%rbp)
	.loc 4 406 34
	call	_ZSt23__is_constant_evaluatedv
	.loc 4 406 2 discriminator 1
	testb	%al, %al
	je	.L12
	.loc 4 407 52
	movq	16(%rbp), %rax
	movq	%rax, %rcx
	call	_ZN9__gnu_cxx11char_traitsIcE6lengthEPKc
	.loc 4 407 56
	jmp	.L13
.L12:
	.loc 4 409 25
	movq	16(%rbp), %rax
	movq	%rax, %rcx
	call	strlen
	.loc 4 409 29
	nop
.L13:
	.loc 4 410 7
	addq	$32, %rsp
	popq	%rbp
	.cfi_restore 6
	.cfi_def_cfa 7, 8
	ret
	.cfi_endproc
.LFE307:
	.seh_endproc
	.section	.text$_ZNSt11char_traitsIcE4copyEPcPKcy,"x"
	.linkonce discard
	.globl	_ZNSt11char_traitsIcE4copyEPcPKcy
	.def	_ZNSt11char_traitsIcE4copyEPcPKcy;	.scl	2;	.type	32;	.endef
	.seh_proc	_ZNSt11char_traitsIcE4copyEPcPKcy
_ZNSt11char_traitsIcE4copyEPcPKcy:
.LFB310:
	.loc 4 437 7
	.cfi_startproc
	pushq	%rbp
	.seh_pushreg	%rbp
	.cfi_def_cfa_offset 16
	.cfi_offset 6, -16
	movq	%rsp, %rbp
	.seh_setframe	%rbp, 0
	.cfi_def_cfa_register 6
	subq	$32, %rsp
	.seh_stackalloc	32
	.seh_endprologue
	movq	%rcx, 16(%rbp)
	movq	%rdx, 24(%rbp)
	movq	%r8, 32(%rbp)
	.loc 4 439 2
	cmpq	$0, 32(%rbp)
	jne	.L15
	.loc 4 440 11
	movq	16(%rbp), %rax
	jmp	.L16
.L15:
	.loc 4 442 34
	call	_ZSt23__is_constant_evaluatedv
	.loc 4 442 2 discriminator 1
	testb	%al, %al
	je	.L17
	.loc 4 443 50
	movq	32(%rbp), %rcx
	movq	24(%rbp), %rdx
	movq	16(%rbp), %rax
	movq	%rcx, %r8
	movq	%rax, %rcx
	call	_ZN9__gnu_cxx11char_traitsIcE4copyEPcPKcy
	.loc 4 443 66
	jmp	.L16
.L17:
	.loc 4 445 49
	movq	16(%rbp), %rdx
	movq	24(%rbp), %rax
	movq	%rdx, %rcx
	movq	%rax, %rdx
	movq	32(%rbp), %rax
	movq	%rax, %r8
	call	memcpy
	.loc 4 445 66
	nop
.L16:
	.loc 4 446 7
	addq	$32, %rsp
	popq	%rbp
	.cfi_restore 6
	.cfi_def_cfa 7, 8
	ret
	.cfi_endproc
.LFE310:
	.seh_endproc
	.section	.text$_ZNKSt7__cxx1112basic_stringIcSt11char_traitsIcESaIcEE4sizeEv,"x"
	.linkonce discard
	.align 2
	.globl	_ZNKSt7__cxx1112basic_stringIcSt11char_traitsIcESaIcEE4sizeEv
	.def	_ZNKSt7__cxx1112basic_stringIcSt11char_traitsIcESaIcEE4sizeEv;	.scl	2;	.type	32;	.endef
	.seh_proc	_ZNKSt7__cxx1112basic_stringIcSt11char_traitsIcESaIcEE4sizeEv
_ZNKSt7__cxx1112basic_stringIcSt11char_traitsIcESaIcEE4sizeEv:
.LFB1573:
	.file 5 "D:/Program Files/JetBrains/CLion 2024.2.3/bin/mingw/lib/gcc/x86_64-w64-mingw32/13.1.0/include/c++/bits/basic_string.h"
	.loc 5 1070 7
	.cfi_startproc
	pushq	%rbp
	.seh_pushreg	%rbp
	.cfi_def_cfa_offset 16
	.cfi_offset 6, -16
	movq	%rsp, %rbp
	.seh_setframe	%rbp, 0
	.cfi_def_cfa_register 6
	.seh_endprologue
	movq	%rcx, 16(%rbp)
	.loc 5 1071 16
	movq	16(%rbp), %rax
	movq	8(%rax), %rax
	.loc 5 1071 34
	popq	%rbp
	.cfi_restore 6
	.cfi_def_cfa 7, 8
	ret
	.cfi_endproc
.LFE1573:
	.seh_endproc
	.section .rdata,"dr"
.LC0:
	.ascii "Phone\346\236\204\351\200\240\345\207\275\346\225\260\0"
	.section	.text$_ZN5PhoneC1ERKNSt7__cxx1112basic_stringIcSt11char_traitsIcESaIcEEE,"x"
	.linkonce discard
	.align 2
	.globl	_ZN5PhoneC1ERKNSt7__cxx1112basic_stringIcSt11char_traitsIcESaIcEEE
	.def	_ZN5PhoneC1ERKNSt7__cxx1112basic_stringIcSt11char_traitsIcESaIcEEE;	.scl	2;	.type	32;	.endef
	.seh_proc	_ZN5PhoneC1ERKNSt7__cxx1112basic_stringIcSt11char_traitsIcESaIcEEE
_ZN5PhoneC1ERKNSt7__cxx1112basic_stringIcSt11char_traitsIcESaIcEEE:
.LFB2446:
	.file 6 "D:/Workspace/CPP/CppLearning/class/\347\261\273\345\257\271\350\261\241\344\275\234\344\270\272\347\261\273\346\210\220\345\221\230.cpp"
	.loc 6 14 5
	.cfi_startproc
	pushq	%rbp
	.seh_pushreg	%rbp
	.cfi_def_cfa_offset 16
	.cfi_offset 6, -16
	pushq	%rbx
	.seh_pushreg	%rbx
	.cfi_def_cfa_offset 24
	.cfi_offset 3, -24
	subq	$40, %rsp
	.seh_stackalloc	40
	.cfi_def_cfa_offset 64
	leaq	32(%rsp), %rbp
	.seh_setframe	%rbp, 32
	.cfi_def_cfa 6, 32
	.seh_endprologue
	movq	%rcx, 32(%rbp)
	movq	%rdx, 40(%rbp)
.LBB178:
	.loc 6 14 36
	movq	32(%rbp), %rax
	movq	%rax, %rcx
	call	_ZNSt7__cxx1112basic_stringIcSt11char_traitsIcESaIcEEC1Ev
	.loc 6 15 23
	movq	32(%rbp), %rax
	movq	40(%rbp), %rdx
	movq	%rax, %rcx
.LEHB0:
	call	_ZNSt7__cxx1112basic_stringIcSt11char_traitsIcESaIcEEaSERKS4_
	.loc 6 16 15
	leaq	.LC0(%rip), %rax
	movq	%rax, %rdx
	movq	.refptr._ZSt4cout(%rip), %rax
	movq	%rax, %rcx
	call	_ZStlsISt11char_traitsIcEERSt13basic_ostreamIcT_ES5_PKc
	movq	%rax, %rcx
	.loc 6 16 36 discriminator 1
	movq	.refptr._ZSt4endlIcSt11char_traitsIcEERSt13basic_ostreamIT_T0_ES6_(%rip), %rax
	movq	%rax, %rdx
	call	_ZNSolsEPFRSoS_E
.LEHE0:
.LBE178:
	.loc 6 17 5
	jmp	.L23
.L22:
.LBB179:
	movq	%rax, %rbx
	movq	32(%rbp), %rax
	movq	%rax, %rcx
	call	_ZNSt7__cxx1112basic_stringIcSt11char_traitsIcESaIcEED1Ev
	movq	%rbx, %rax
	movq	%rax, %rcx
.LEHB1:
	call	_Unwind_Resume
	nop
.LEHE1:
.L23:
.LBE179:
	addq	$40, %rsp
	popq	%rbx
	.cfi_restore 3
	popq	%rbp
	.cfi_restore 6
	.cfi_def_cfa 7, -24
	ret
	.cfi_endproc
.LFE2446:
	.def	__gxx_personality_seh0;	.scl	2;	.type	32;	.endef
	.seh_handler	__gxx_personality_seh0, @unwind, @except
	.seh_handlerdata
.LLSDA2446:
	.byte	0xff
	.byte	0xff
	.byte	0x1
	.uleb128 .LLSDACSE2446-.LLSDACSB2446
.LLSDACSB2446:
	.uleb128 .LEHB0-.LFB2446
	.uleb128 .LEHE0-.LEHB0
	.uleb128 .L22-.LFB2446
	.uleb128 0
	.uleb128 .LEHB1-.LFB2446
	.uleb128 .LEHE1-.LEHB1
	.uleb128 0
	.uleb128 0
.LLSDACSE2446:
	.section	.text$_ZN5PhoneC1ERKNSt7__cxx1112basic_stringIcSt11char_traitsIcESaIcEEE,"x"
	.linkonce discard
	.seh_endproc
	.section .rdata,"dr"
.LC1:
	.ascii "Phone\346\236\220\346\236\204\345\207\275\346\225\260\0"
	.section	.text$_ZN5PhoneD1Ev,"x"
	.linkonce discard
	.align 2
	.globl	_ZN5PhoneD1Ev
	.def	_ZN5PhoneD1Ev;	.scl	2;	.type	32;	.endef
	.seh_proc	_ZN5PhoneD1Ev
_ZN5PhoneD1Ev:
.LFB2449:
	.loc 6 18 5
	.cfi_startproc
	pushq	%rbp
	.seh_pushreg	%rbp
	.cfi_def_cfa_offset 16
	.cfi_offset 6, -16
	movq	%rsp, %rbp
	.seh_setframe	%rbp, 0
	.cfi_def_cfa_register 6
	subq	$32, %rsp
	.seh_stackalloc	32
	.seh_endprologue
	movq	%rcx, 16(%rbp)
.LBB180:
	.loc 6 19 15
	leaq	.LC1(%rip), %rax
	movq	%rax, %rdx
	movq	.refptr._ZSt4cout(%rip), %rax
	movq	%rax, %rcx
	call	_ZStlsISt11char_traitsIcEERSt13basic_ostreamIcT_ES5_PKc
	movq	%rax, %rcx
	.loc 6 19 36 discriminator 1
	movq	.refptr._ZSt4endlIcSt11char_traitsIcEERSt13basic_ostreamIT_T0_ES6_(%rip), %rax
	movq	%rax, %rdx
	call	_ZNSolsEPFRSoS_E
	.loc 6 20 5
	movq	16(%rbp), %rax
	movq	%rax, %rcx
	call	_ZNSt7__cxx1112basic_stringIcSt11char_traitsIcESaIcEED1Ev
.LBE180:
	nop
	addq	$32, %rsp
	popq	%rbp
	.cfi_restore 6
	.cfi_def_cfa 7, 8
	ret
	.cfi_endproc
.LFE2449:
	.seh_handler	__gxx_personality_seh0, @unwind, @except
	.seh_handlerdata
.LLSDA2449:
	.byte	0xff
	.byte	0xff
	.byte	0x1
	.uleb128 .LLSDACSE2449-.LLSDACSB2449
.LLSDACSB2449:
.LLSDACSE2449:
	.section	.text$_ZN5PhoneD1Ev,"x"
	.linkonce discard
	.seh_endproc
	.section .rdata,"dr"
	.align 8
.LC2:
	.ascii "Person2::Person2(const string &name, const Phone &phone)\346\236\204\351\200\240\345\207\275\346\225\260\0"
	.section	.text$_ZN7Person2C1ERKNSt7__cxx1112basic_stringIcSt11char_traitsIcESaIcEEES7_,"x"
	.linkonce discard
	.align 2
	.globl	_ZN7Person2C1ERKNSt7__cxx1112basic_stringIcSt11char_traitsIcESaIcEEES7_
	.def	_ZN7Person2C1ERKNSt7__cxx1112basic_stringIcSt11char_traitsIcESaIcEEES7_;	.scl	2;	.type	32;	.endef
	.seh_proc	_ZN7Person2C1ERKNSt7__cxx1112basic_stringIcSt11char_traitsIcESaIcEEES7_
_ZN7Person2C1ERKNSt7__cxx1112basic_stringIcSt11char_traitsIcESaIcEEES7_:
.LFB2452:
	.loc 6 29 5
	.cfi_startproc
	pushq	%rbp
	.seh_pushreg	%rbp
	.cfi_def_cfa_offset 16
	.cfi_offset 6, -16
	pushq	%rbx
	.seh_pushreg	%rbx
	.cfi_def_cfa_offset 24
	.cfi_offset 3, -24
	subq	$40, %rsp
	.seh_stackalloc	40
	.cfi_def_cfa_offset 64
	leaq	32(%rsp), %rbp
	.seh_setframe	%rbp, 32
	.cfi_def_cfa 6, 32
	.seh_endprologue
	movq	%rcx, 32(%rbp)
	movq	%rdx, 40(%rbp)
	movq	%r8, 48(%rbp)
.LBB181:
	.loc 6 29 59
	movq	32(%rbp), %rax
	movq	40(%rbp), %rdx
	movq	%rax, %rcx
.LEHB2:
	call	_ZNSt7__cxx1112basic_stringIcSt11char_traitsIcESaIcEEC1ERKS4_
.LEHE2:
	.loc 6 29 73 discriminator 1
	movq	32(%rbp), %rax
	leaq	32(%rax), %rcx
	movq	48(%rbp), %rax
	movq	%rax, %rdx
.LEHB3:
	call	_ZN5PhoneC1ERKNSt7__cxx1112basic_stringIcSt11char_traitsIcESaIcEEE
.LEHE3:
	.loc 6 30 17
	leaq	.LC2(%rip), %rax
	movq	%rax, %rdx
	movq	.refptr._ZSt4cout(%rip), %rax
	movq	%rax, %rcx
.LEHB4:
	call	_ZStlsISt11char_traitsIcEERSt13basic_ostreamIcT_ES5_PKc
	movq	%rax, %rcx
	.loc 6 30 91 discriminator 1
	movq	.refptr._ZSt4endlIcSt11char_traitsIcEERSt13basic_ostreamIT_T0_ES6_(%rip), %rax
	movq	%rax, %rdx
	call	_ZNSolsEPFRSoS_E
.LEHE4:
.LBE181:
	.loc 6 31 5
	jmp	.L30
.L29:
.LBB182:
	movq	%rax, %rbx
	movq	32(%rbp), %rax
	addq	$32, %rax
	movq	%rax, %rcx
	call	_ZN5PhoneD1Ev
	jmp	.L27
.L28:
	movq	%rax, %rbx
.L27:
	movq	32(%rbp), %rax
	movq	%rax, %rcx
	call	_ZNSt7__cxx1112basic_stringIcSt11char_traitsIcESaIcEED1Ev
	movq	%rbx, %rax
	movq	%rax, %rcx
.LEHB5:
	call	_Unwind_Resume
	nop
.LEHE5:
.L30:
.LBE182:
	addq	$40, %rsp
	popq	%rbx
	.cfi_restore 3
	popq	%rbp
	.cfi_restore 6
	.cfi_def_cfa 7, -24
	ret
	.cfi_endproc
.LFE2452:
	.seh_handler	__gxx_personality_seh0, @unwind, @except
	.seh_handlerdata
.LLSDA2452:
	.byte	0xff
	.byte	0xff
	.byte	0x1
	.uleb128 .LLSDACSE2452-.LLSDACSB2452
.LLSDACSB2452:
	.uleb128 .LEHB2-.LFB2452
	.uleb128 .LEHE2-.LEHB2
	.uleb128 0
	.uleb128 0
	.uleb128 .LEHB3-.LFB2452
	.uleb128 .LEHE3-.LEHB3
	.uleb128 .L28-.LFB2452
	.uleb128 0
	.uleb128 .LEHB4-.LFB2452
	.uleb128 .LEHE4-.LEHB4
	.uleb128 .L29-.LFB2452
	.uleb128 0
	.uleb128 .LEHB5-.LFB2452
	.uleb128 .LEHE5-.LEHB5
	.uleb128 0
	.uleb128 0
.LLSDACSE2452:
	.section	.text$_ZN7Person2C1ERKNSt7__cxx1112basic_stringIcSt11char_traitsIcESaIcEEES7_,"x"
	.linkonce discard
	.seh_endproc
	.section .rdata,"dr"
	.align 8
.LC3:
	.ascii "Person2::~Person2()\346\236\220\346\236\204\345\207\275\346\225\260\0"
	.section	.text$_ZN7Person2D1Ev,"x"
	.linkonce discard
	.align 2
	.globl	_ZN7Person2D1Ev
	.def	_ZN7Person2D1Ev;	.scl	2;	.type	32;	.endef
	.seh_proc	_ZN7Person2D1Ev
_ZN7Person2D1Ev:
.LFB2455:
	.loc 6 33 5
	.cfi_startproc
	pushq	%rbp
	.seh_pushreg	%rbp
	.cfi_def_cfa_offset 16
	.cfi_offset 6, -16
	movq	%rsp, %rbp
	.seh_setframe	%rbp, 0
	.cfi_def_cfa_register 6
	subq	$32, %rsp
	.seh_stackalloc	32
	.seh_endprologue
	movq	%rcx, 16(%rbp)
.LBB183:
	.loc 6 34 17
	leaq	.LC3(%rip), %rax
	movq	%rax, %rdx
	movq	.refptr._ZSt4cout(%rip), %rax
	movq	%rax, %rcx
	call	_ZStlsISt11char_traitsIcEERSt13basic_ostreamIcT_ES5_PKc
	movq	%rax, %rcx
	.loc 6 34 54 discriminator 1
	movq	.refptr._ZSt4endlIcSt11char_traitsIcEERSt13basic_ostreamIT_T0_ES6_(%rip), %rax
	movq	%rax, %rdx
	call	_ZNSolsEPFRSoS_E
	.loc 6 35 5
	movq	16(%rbp), %rax
	addq	$32, %rax
	movq	%rax, %rcx
	call	_ZN5PhoneD1Ev
	.loc 6 35 5 is_stmt 0 discriminator 1
	movq	16(%rbp), %rax
	movq	%rax, %rcx
	call	_ZNSt7__cxx1112basic_stringIcSt11char_traitsIcESaIcEED1Ev
.LBE183:
	.loc 6 35 5
	nop
	addq	$32, %rsp
	popq	%rbp
	.cfi_restore 6
	.cfi_def_cfa 7, 8
	ret
	.cfi_endproc
.LFE2455:
	.seh_handler	__gxx_personality_seh0, @unwind, @except
	.seh_handlerdata
.LLSDA2455:
	.byte	0xff
	.byte	0xff
	.byte	0x1
	.uleb128 .LLSDACSE2455-.LLSDACSB2455
.LLSDACSB2455:
.LLSDACSE2455:
	.section	.text$_ZN7Person2D1Ev,"x"
	.linkonce discard
	.seh_endproc
	.section .rdata,"dr"
.LC4:
	.ascii "HUAWEI Mate20\0"
.LC5:
	.ascii "\345\274\240\344\270\211\0"
.LC6:
	.ascii "\346\213\277\347\235\200\0"
	.text
	.globl	_Z6main17v
	.def	_Z6main17v;	.scl	2;	.type	32;	.endef
	.seh_proc	_Z6main17v
_Z6main17v:
.LFB2456:
	.loc 6 38 14 is_stmt 1
	.cfi_startproc
	pushq	%rbp
	.seh_pushreg	%rbp
	.cfi_def_cfa_offset 16
	.cfi_offset 6, -16
	pushq	%rbx
	.seh_pushreg	%rbx
	.cfi_def_cfa_offset 24
	.cfi_offset 3, -24
	subq	$216, %rsp
	.seh_stackalloc	216
	.cfi_def_cfa_offset 240
	leaq	208(%rsp), %rbp
	.seh_setframe	%rbp, 208
	.cfi_def_cfa 6, 32
	.seh_endprologue
	leaq	-65(%rbp), %rax
	movq	%rax, -8(%rbp)
.LBB184:
.LBB185:
.LBB186:
.LBB187:
.LBB188:
	.file 7 "D:/Program Files/JetBrains/CLion 2024.2.3/bin/mingw/lib/gcc/x86_64-w64-mingw32/13.1.0/include/c++/bits/new_allocator.h"
	.loc 7 88 36
	nop
.LBE188:
.LBE187:
.LBE186:
	.file 8 "D:/Program Files/JetBrains/CLion 2024.2.3/bin/mingw/lib/gcc/x86_64-w64-mingw32/13.1.0/include/c++/bits/allocator.h"
	.loc 8 163 30
	nop
.LBE185:
.LBE184:
	.loc 6 39 40 discriminator 1
	leaq	-65(%rbp), %rdx
	leaq	-112(%rbp), %rax
	movq	%rdx, %r8
	leaq	.LC4(%rip), %rdx
	movq	%rax, %rcx
.LEHB6:
	call	_ZNSt7__cxx1112basic_stringIcSt11char_traitsIcESaIcEEC1IS3_EEPKcRKS3_
.LEHE6:
	leaq	-17(%rbp), %rax
	movq	%rax, -16(%rbp)
.LBB189:
.LBB190:
.LBB191:
.LBB192:
.LBB193:
	.loc 7 88 36
	nop
.LBE193:
.LBE192:
.LBE191:
	.loc 8 163 30
	nop
.LBE190:
.LBE189:
	.loc 6 39 40 discriminator 1
	leaq	-17(%rbp), %rdx
	leaq	-64(%rbp), %rax
	movq	%rdx, %r8
	leaq	.LC5(%rip), %rdx
	movq	%rax, %rcx
.LEHB7:
	call	_ZNSt7__cxx1112basic_stringIcSt11char_traitsIcESaIcEEC1IS3_EEPKcRKS3_
.LEHE7:
	.loc 6 39 40 is_stmt 0 discriminator 4
	leaq	-112(%rbp), %rcx
	leaq	-64(%rbp), %rdx
	leaq	-176(%rbp), %rax
	movq	%rcx, %r8
	movq	%rax, %rcx
.LEHB8:
	call	_ZN7Person2C1ERKNSt7__cxx1112basic_stringIcSt11char_traitsIcESaIcEEES7_
.LEHE8:
	.loc 6 39 40 discriminator 6
	leaq	-64(%rbp), %rax
	movq	%rax, %rcx
	call	_ZNSt7__cxx1112basic_stringIcSt11char_traitsIcESaIcEED1Ev
.LBB194:
.LBB195:
	.loc 8 184 31 is_stmt 1
	nop
.LBE195:
.LBE194:
	.loc 6 39 40 discriminator 2
	leaq	-112(%rbp), %rax
	movq	%rax, %rcx
	call	_ZNSt7__cxx1112basic_stringIcSt11char_traitsIcESaIcEED1Ev
.LBB196:
.LBB197:
	.loc 8 184 31
	nop
.LBE197:
.LBE196:
	.loc 6 40 41
	leaq	-176(%rbp), %rax
	movq	%rax, %rdx
	movq	.refptr._ZSt4cout(%rip), %rax
	movq	%rax, %rcx
.LEHB9:
	call	_ZStlsIcSt11char_traitsIcESaIcEERSt13basic_ostreamIT_T0_ES7_RKNSt7__cxx1112basic_stringIS4_S5_T1_EE
	movq	%rax, %rcx
	.loc 6 40 41 is_stmt 0 discriminator 1
	leaq	.LC6(%rip), %rax
	movq	%rax, %rdx
	call	_ZStlsISt11char_traitsIcEERSt13basic_ostreamIcT_ES5_PKc
	movq	%rax, %rcx
	.loc 6 40 41 discriminator 2
	leaq	-176(%rbp), %rax
	addq	$32, %rax
	movq	%rax, %rdx
	call	_ZStlsIcSt11char_traitsIcESaIcEERSt13basic_ostreamIT_T0_ES7_RKNSt7__cxx1112basic_stringIS4_S5_T1_EE
	movq	%rax, %rcx
	.loc 6 40 54 is_stmt 1 discriminator 3
	movq	.refptr._ZSt4endlIcSt11char_traitsIcEERSt13basic_ostreamIT_T0_ES6_(%rip), %rax
	movq	%rax, %rdx
	call	_ZNSolsEPFRSoS_E
.LEHE9:
	.loc 6 41 12
	movl	$0, %ebx
	.loc 6 42 1
	leaq	-176(%rbp), %rax
	movq	%rax, %rcx
	call	_ZN7Person2D1Ev
	.loc 6 41 12
	movl	%ebx, %eax
	jmp	.L44
.L40:
	.loc 6 39 40 discriminator 5
	movq	%rax, %rbx
	leaq	-64(%rbp), %rax
	movq	%rax, %rcx
	call	_ZNSt7__cxx1112basic_stringIcSt11char_traitsIcESaIcEED1Ev
	movq	%rbx, %rax
.LBB198:
.LBB199:
	.loc 8 184 31
	jmp	.L45
.L39:
.L45:
	nop
	movq	%rax, %rbx
.LBE199:
.LBE198:
	.loc 6 39 40
	leaq	-112(%rbp), %rax
	movq	%rax, %rcx
	call	_ZNSt7__cxx1112basic_stringIcSt11char_traitsIcESaIcEED1Ev
	movq	%rbx, %rax
.LBB200:
.LBB201:
	.loc 8 184 31
	jmp	.L46
.L38:
.L46:
	nop
	movq	%rax, %rcx
.LEHB10:
	call	_Unwind_Resume
.L41:
.LBE201:
.LBE200:
	.loc 6 42 1
	movq	%rax, %rbx
	leaq	-176(%rbp), %rax
	movq	%rax, %rcx
	call	_ZN7Person2D1Ev
	movq	%rbx, %rax
	movq	%rax, %rcx
	call	_Unwind_Resume
.LEHE10:
.L44:
	addq	$216, %rsp
	popq	%rbx
	.cfi_restore 3
	popq	%rbp
	.cfi_restore 6
	.cfi_def_cfa 7, -200
	ret
	.cfi_endproc
.LFE2456:
	.seh_handler	__gxx_personality_seh0, @unwind, @except
	.seh_handlerdata
.LLSDA2456:
	.byte	0xff
	.byte	0xff
	.byte	0x1
	.uleb128 .LLSDACSE2456-.LLSDACSB2456
.LLSDACSB2456:
	.uleb128 .LEHB6-.LFB2456
	.uleb128 .LEHE6-.LEHB6
	.uleb128 .L38-.LFB2456
	.uleb128 0
	.uleb128 .LEHB7-.LFB2456
	.uleb128 .LEHE7-.LEHB7
	.uleb128 .L39-.LFB2456
	.uleb128 0
	.uleb128 .LEHB8-.LFB2456
	.uleb128 .LEHE8-.LEHB8
	.uleb128 .L40-.LFB2456
	.uleb128 0
	.uleb128 .LEHB9-.LFB2456
	.uleb128 .LEHE9-.LEHB9
	.uleb128 .L41-.LFB2456
	.uleb128 0
	.uleb128 .LEHB10-.LFB2456
	.uleb128 .LEHE10-.LEHB10
	.uleb128 0
	.uleb128 0
.LLSDACSE2456:
	.text
	.seh_endproc
	.section	.text$_ZSt12construct_atIcJRKcEEDTgsnwcvPvLi0E_T_pispcl7declvalIT0_EEEEPS3_DpOS4_,"x"
	.linkonce discard
	.globl	_ZSt12construct_atIcJRKcEEDTgsnwcvPvLi0E_T_pispcl7declvalIT0_EEEEPS3_DpOS4_
	.def	_ZSt12construct_atIcJRKcEEDTgsnwcvPvLi0E_T_pispcl7declvalIT0_EEEEPS3_DpOS4_;	.scl	2;	.type	32;	.endef
	.seh_proc	_ZSt12construct_atIcJRKcEEDTgsnwcvPvLi0E_T_pispcl7declvalIT0_EEEEPS3_DpOS4_
_ZSt12construct_atIcJRKcEEDTgsnwcvPvLi0E_T_pispcl7declvalIT0_EEEEPS3_DpOS4_:
.LFB2457:
	.file 9 "D:/Program Files/JetBrains/CLion 2024.2.3/bin/mingw/lib/gcc/x86_64-w64-mingw32/13.1.0/include/c++/bits/stl_construct.h"
	.loc 9 94 5
	.cfi_startproc
	pushq	%rbp
	.seh_pushreg	%rbp
	.cfi_def_cfa_offset 16
	.cfi_offset 6, -16
	pushq	%rbx
	.seh_pushreg	%rbx
	.cfi_def_cfa_offset 24
	.cfi_offset 3, -24
	subq	$40, %rsp
	.seh_stackalloc	40
	.cfi_def_cfa_offset 64
	leaq	32(%rsp), %rbp
	.seh_setframe	%rbp, 32
	.cfi_def_cfa 6, 32
	.seh_endprologue
	movq	%rcx, 32(%rbp)
	movq	%rdx, 40(%rbp)
	.loc 9 97 20
	movq	32(%rbp), %rax
	.loc 9 97 14
	movq	%rax, %rdx
	movl	$1, %ecx
	call	_ZnwyPv
	movq	%rax, %rbx
	.loc 9 97 62 discriminator 1
	movq	40(%rbp), %rax
	movq	%rax, %rcx
	call	_ZSt7forwardIRKcEOT_RNSt16remove_referenceIS2_E4typeE
	.loc 9 97 14 discriminator 2
	movzbl	(%rax), %eax
	movb	%al, (%rbx)
	.loc 9 97 73 discriminator 1
	movq	%rbx, %rax
	.loc 9 97 76
	addq	$40, %rsp
	popq	%rbx
	.cfi_restore 3
	popq	%rbp
	.cfi_restore 6
	.cfi_def_cfa 7, -24
	ret
	.cfi_endproc
.LFE2457:
	.seh_endproc
	.section	.text$_ZN9__gnu_cxx11char_traitsIcE6lengthEPKc,"x"
	.linkonce discard
	.align 2
	.globl	_ZN9__gnu_cxx11char_traitsIcE6lengthEPKc
	.def	_ZN9__gnu_cxx11char_traitsIcE6lengthEPKc;	.scl	2;	.type	32;	.endef
	.seh_proc	_ZN9__gnu_cxx11char_traitsIcE6lengthEPKc
_ZN9__gnu_cxx11char_traitsIcE6lengthEPKc:
.LFB2458:
	.loc 4 199 5
	.cfi_startproc
	pushq	%rbp
	.seh_pushreg	%rbp
	.cfi_def_cfa_offset 16
	.cfi_offset 6, -16
	movq	%rsp, %rbp
	.seh_setframe	%rbp, 0
	.cfi_def_cfa_register 6
	subq	$48, %rsp
	.seh_stackalloc	48
	.seh_endprologue
	movq	%rcx, 16(%rbp)
	.loc 4 202 19
	movq	$0, -8(%rbp)
	.loc 4 203 7
	jmp	.L50
.L51:
	.loc 4 204 9
	addq	$1, -8(%rbp)
.L50:
	.loc 4 203 17
	movb	$0, -9(%rbp)
	.loc 4 203 21
	movq	16(%rbp), %rdx
	movq	-8(%rbp), %rax
	leaq	(%rdx,%rax), %rcx
	.loc 4 203 17
	leaq	-9(%rbp), %rax
	movq	%rax, %rdx
	call	_ZN9__gnu_cxx11char_traitsIcE2eqERKcS3_
	.loc 4 203 17 is_stmt 0 discriminator 1
	xorl	$1, %eax
	testb	%al, %al
	jne	.L51
	.loc 4 205 14 is_stmt 1
	movq	-8(%rbp), %rax
	.loc 4 206 5
	addq	$48, %rsp
	popq	%rbp
	.cfi_restore 6
	.cfi_def_cfa 7, 8
	ret
	.cfi_endproc
.LFE2458:
	.seh_endproc
	.section	.text$_ZN9__gnu_cxx11char_traitsIcE4copyEPcPKcy,"x"
	.linkonce discard
	.align 2
	.globl	_ZN9__gnu_cxx11char_traitsIcE4copyEPcPKcy
	.def	_ZN9__gnu_cxx11char_traitsIcE4copyEPcPKcy;	.scl	2;	.type	32;	.endef
	.seh_proc	_ZN9__gnu_cxx11char_traitsIcE4copyEPcPKcy
_ZN9__gnu_cxx11char_traitsIcE4copyEPcPKcy:
.LFB2461:
	.loc 4 263 5
	.cfi_startproc
	pushq	%rbp
	.seh_pushreg	%rbp
	.cfi_def_cfa_offset 16
	.cfi_offset 6, -16
	movq	%rsp, %rbp
	.seh_setframe	%rbp, 0
	.cfi_def_cfa_register 6
	subq	$48, %rsp
	.seh_stackalloc	48
	.seh_endprologue
	movq	%rcx, 16(%rbp)
	movq	%rdx, 24(%rbp)
	movq	%r8, 32(%rbp)
	.loc 4 266 7
	cmpq	$0, 32(%rbp)
	jne	.L54
	.loc 4 267 9
	movq	16(%rbp), %rax
	jmp	.L55
.L54:
.LBB202:
	.loc 4 269 39
	call	_ZSt23__is_constant_evaluatedv
	.loc 4 269 7 discriminator 1
	testb	%al, %al
	je	.L56
.LBB203:
.LBB204:
	.loc 4 271 21
	movq	$0, -8(%rbp)
	.loc 4 271 4
	jmp	.L57
.L58:
	.loc 4 272 40
	movq	24(%rbp), %rdx
	movq	-8(%rbp), %rax
	addq	%rax, %rdx
	.loc 4 272 23
	movq	16(%rbp), %rcx
	movq	-8(%rbp), %rax
	addq	%rcx, %rax
	movq	%rax, %rcx
	call	_ZSt12construct_atIcJRKcEEDTgsnwcvPvLi0E_T_pispcl7declvalIT0_EEEEPS3_DpOS4_
	.loc 4 271 4 discriminator 3
	addq	$1, -8(%rbp)
.L57:
	.loc 4 271 34 discriminator 1
	movq	-8(%rbp), %rax
	cmpq	32(%rbp), %rax
	jb	.L58
.LBE204:
	.loc 4 273 11
	movq	16(%rbp), %rax
	jmp	.L55
.L56:
.LBE203:
.LBE202:
	.loc 4 276 23
	movq	16(%rbp), %rdx
	movq	24(%rbp), %rax
	movq	%rdx, %rcx
	movq	%rax, %rdx
	movq	32(%rbp), %rax
	movq	%rax, %r8
	call	memcpy
	.loc 4 277 14
	movq	16(%rbp), %rax
.L55:
	.loc 4 278 5
	addq	$48, %rsp
	popq	%rbp
	.cfi_restore 6
	.cfi_def_cfa 7, 8
	ret
	.cfi_endproc
.LFE2461:
	.seh_endproc
	.section	.text$_ZNSt7__cxx1112basic_stringIcSt11char_traitsIcESaIcEE12_Alloc_hiderD1Ev,"x"
	.linkonce discard
	.align 2
	.globl	_ZNSt7__cxx1112basic_stringIcSt11char_traitsIcESaIcEE12_Alloc_hiderD1Ev
	.def	_ZNSt7__cxx1112basic_stringIcSt11char_traitsIcESaIcEE12_Alloc_hiderD1Ev;	.scl	2;	.type	32;	.endef
	.seh_proc	_ZNSt7__cxx1112basic_stringIcSt11char_traitsIcESaIcEE12_Alloc_hiderD1Ev
_ZNSt7__cxx1112basic_stringIcSt11char_traitsIcESaIcEE12_Alloc_hiderD1Ev:
.LFB2599:
	.loc 5 192 14
	.cfi_startproc
	pushq	%rbp
	.seh_pushreg	%rbp
	.cfi_def_cfa_offset 16
	.cfi_offset 6, -16
	movq	%rsp, %rbp
	.seh_setframe	%rbp, 0
	.cfi_def_cfa_register 6
	subq	$16, %rsp
	.seh_stackalloc	16
	.seh_endprologue
	movq	%rcx, 16(%rbp)
	movq	16(%rbp), %rax
	movq	%rax, -8(%rbp)
.LBB205:
.LBB206:
.LBB207:
	.loc 8 184 31
	nop
.LBE207:
.LBE206:
.LBE205:
	.loc 5 192 14
	nop
	addq	$16, %rsp
	popq	%rbp
	.cfi_restore 6
	.cfi_def_cfa 7, 8
	ret
	.cfi_endproc
.LFE2599:
	.seh_endproc
	.section	.text$_ZNSt7__cxx1112basic_stringIcSt11char_traitsIcESaIcEED1Ev,"x"
	.linkonce discard
	.align 2
	.globl	_ZNSt7__cxx1112basic_stringIcSt11char_traitsIcESaIcEED1Ev
	.def	_ZNSt7__cxx1112basic_stringIcSt11char_traitsIcESaIcEED1Ev;	.scl	2;	.type	32;	.endef
	.seh_proc	_ZNSt7__cxx1112basic_stringIcSt11char_traitsIcESaIcEED1Ev
_ZNSt7__cxx1112basic_stringIcSt11char_traitsIcESaIcEED1Ev:
.LFB2604:
	.loc 5 802 7
	.cfi_startproc
	pushq	%rbp
	.seh_pushreg	%rbp
	.cfi_def_cfa_offset 16
	.cfi_offset 6, -16
	movq	%rsp, %rbp
	.seh_setframe	%rbp, 0
	.cfi_def_cfa_register 6
	subq	$32, %rsp
	.seh_stackalloc	32
	.seh_endprologue
	movq	%rcx, 16(%rbp)
.LBB208:
	.loc 5 803 19
	movq	16(%rbp), %rax
	movq	%rax, %rcx
	call	_ZNSt7__cxx1112basic_stringIcSt11char_traitsIcESaIcEE10_M_disposeEv
	.loc 5 803 23 discriminator 1
	movq	16(%rbp), %rax
	movq	%rax, %rcx
	call	_ZNSt7__cxx1112basic_stringIcSt11char_traitsIcESaIcEE12_Alloc_hiderD1Ev
.LBE208:
	.loc 5 803 23 is_stmt 0
	nop
	addq	$32, %rsp
	popq	%rbp
	.cfi_restore 6
	.cfi_def_cfa 7, 8
	ret
	.cfi_endproc
.LFE2604:
	.seh_handler	__gxx_personality_seh0, @unwind, @except
	.seh_handlerdata
.LLSDA2604:
	.byte	0xff
	.byte	0xff
	.byte	0x1
	.uleb128 .LLSDACSE2604-.LLSDACSB2604
.LLSDACSB2604:
.LLSDACSE2604:
	.section	.text$_ZNSt7__cxx1112basic_stringIcSt11char_traitsIcESaIcEED1Ev,"x"
	.linkonce discard
	.seh_endproc
	.section	.text$_ZNSt7__cxx1112basic_stringIcSt11char_traitsIcESaIcEEC1Ev,"x"
	.linkonce discard
	.align 2
	.globl	_ZNSt7__cxx1112basic_stringIcSt11char_traitsIcESaIcEEC1Ev
	.def	_ZNSt7__cxx1112basic_stringIcSt11char_traitsIcESaIcEEC1Ev;	.scl	2;	.type	32;	.endef
	.seh_proc	_ZNSt7__cxx1112basic_stringIcSt11char_traitsIcESaIcEEC1Ev
_ZNSt7__cxx1112basic_stringIcSt11char_traitsIcESaIcEEC1Ev:
.LFB2759:
	.loc 5 523 7 is_stmt 1
	.cfi_startproc
	pushq	%rbp
	.seh_pushreg	%rbp
	.cfi_def_cfa_offset 16
	.cfi_offset 6, -16
	pushq	%rbx
	.seh_pushreg	%rbx
	.cfi_def_cfa_offset 24
	.cfi_offset 3, -24
	subq	$72, %rsp
	.seh_stackalloc	72
	.cfi_def_cfa_offset 96
	leaq	64(%rsp), %rbp
	.seh_setframe	%rbp, 64
	.cfi_def_cfa 6, 32
	.seh_endprologue
	movq	%rcx, 32(%rbp)
.LBB209:
	.loc 5 525 9
	movq	32(%rbp), %rbx
	leaq	-25(%rbp), %rax
	movq	%rax, -24(%rbp)
.LBB210:
.LBB211:
.LBB212:
.LBB213:
.LBB214:
	.loc 7 88 36
	nop
.LBE214:
.LBE213:
.LBE212:
	.loc 8 163 30
	nop
.LBE211:
.LBE210:
	.loc 5 525 9 discriminator 1
	movq	32(%rbp), %rax
	movq	%rax, %rcx
	call	_ZNSt7__cxx1112basic_stringIcSt11char_traitsIcESaIcEE13_M_local_dataEv
	.loc 5 525 9 is_stmt 0 discriminator 2
	leaq	-25(%rbp), %rdx
	movq	%rdx, %r8
	movq	%rax, %rdx
	movq	%rbx, %rcx
	call	_ZNSt7__cxx1112basic_stringIcSt11char_traitsIcESaIcEE12_Alloc_hiderC1EPcOS3_
.LBB215:
.LBB216:
	.loc 8 184 31 is_stmt 1
	nop
	movq	32(%rbp), %rax
	movq	%rax, -8(%rbp)
.LBE216:
.LBE215:
.LBB217:
.LBB218:
.LBB219:
	.loc 5 362 32
	call	_ZSt21is_constant_evaluatedv
	.loc 5 362 2 discriminator 1
	testb	%al, %al
	je	.L62
.LBB220:
.LBB221:
	.loc 5 363 19
	movq	$0, -16(%rbp)
	.loc 5 363 4
	jmp	.L63
.L64:
	.loc 5 364 24
	movq	-8(%rbp), %rdx
	movq	-16(%rbp), %rax
	addq	%rdx, %rax
	addq	$16, %rax
	movb	$0, (%rax)
	.loc 5 363 4 discriminator 3
	addq	$1, -16(%rbp)
.L63:
	.loc 5 363 32 discriminator 1
	cmpq	$15, -16(%rbp)
	jbe	.L64
.L62:
.LBE221:
.LBE220:
.LBE219:
	.loc 5 366 22
	movq	-8(%rbp), %rax
	movq	%rax, %rcx
	call	_ZNSt7__cxx1112basic_stringIcSt11char_traitsIcESaIcEE13_M_local_dataEv
	.loc 5 366 23
	nop
.LBE218:
.LBE217:
	.loc 5 528 15
	movq	32(%rbp), %rax
	movl	$0, %edx
	movq	%rax, %rcx
	call	_ZNSt7__cxx1112basic_stringIcSt11char_traitsIcESaIcEE13_M_set_lengthEy
.LBE209:
	.loc 5 529 7
	nop
	addq	$72, %rsp
	popq	%rbx
	.cfi_restore 3
	popq	%rbp
	.cfi_restore 6
	.cfi_def_cfa 7, -56
	ret
	.cfi_endproc
.LFE2759:
	.seh_endproc
	.section	.text$_ZNSt7__cxx1112basic_stringIcSt11char_traitsIcESaIcEEaSERKS4_,"x"
	.linkonce discard
	.align 2
	.globl	_ZNSt7__cxx1112basic_stringIcSt11char_traitsIcESaIcEEaSERKS4_
	.def	_ZNSt7__cxx1112basic_stringIcSt11char_traitsIcESaIcEEaSERKS4_;	.scl	2;	.type	32;	.endef
	.seh_proc	_ZNSt7__cxx1112basic_stringIcSt11char_traitsIcESaIcEEaSERKS4_
_ZNSt7__cxx1112basic_stringIcSt11char_traitsIcESaIcEEaSERKS4_:
.LFB2760:
	.loc 5 811 7
	.cfi_startproc
	pushq	%rbp
	.seh_pushreg	%rbp
	.cfi_def_cfa_offset 16
	.cfi_offset 6, -16
	movq	%rsp, %rbp
	.seh_setframe	%rbp, 0
	.cfi_def_cfa_register 6
	subq	$32, %rsp
	.seh_stackalloc	32
	.seh_endprologue
	movq	%rcx, 16(%rbp)
	movq	%rdx, 24(%rbp)
	.loc 5 813 21
	movq	24(%rbp), %rdx
	movq	16(%rbp), %rax
	movq	%rax, %rcx
	call	_ZNSt7__cxx1112basic_stringIcSt11char_traitsIcESaIcEE6assignERKS4_
	.loc 5 814 7
	addq	$32, %rsp
	popq	%rbp
	.cfi_restore 6
	.cfi_def_cfa 7, 8
	ret
	.cfi_endproc
.LFE2760:
	.seh_endproc
	.section	.text$_ZNSt7__cxx1112basic_stringIcSt11char_traitsIcESaIcEEC1ERKS4_,"x"
	.linkonce discard
	.align 2
	.globl	_ZNSt7__cxx1112basic_stringIcSt11char_traitsIcESaIcEEC1ERKS4_
	.def	_ZNSt7__cxx1112basic_stringIcSt11char_traitsIcESaIcEEC1ERKS4_;	.scl	2;	.type	32;	.endef
	.seh_proc	_ZNSt7__cxx1112basic_stringIcSt11char_traitsIcESaIcEEC1ERKS4_
_ZNSt7__cxx1112basic_stringIcSt11char_traitsIcESaIcEEC1ERKS4_:
.LFB2766:
	.loc 5 548 7
	.cfi_startproc
	pushq	%rbp
	.seh_pushreg	%rbp
	.cfi_def_cfa_offset 16
	.cfi_offset 6, -16
	pushq	%rsi
	.seh_pushreg	%rsi
	.cfi_def_cfa_offset 24
	.cfi_offset 4, -24
	pushq	%rbx
	.seh_pushreg	%rbx
	.cfi_def_cfa_offset 32
	.cfi_offset 3, -32
	subq	$96, %rsp
	.seh_stackalloc	96
	.cfi_def_cfa_offset 128
	leaq	96(%rsp), %rbp
	.seh_setframe	%rbp, 96
	.cfi_def_cfa 6, 32
	.seh_endprologue
	movq	%rcx, 32(%rbp)
	movq	%rdx, 40(%rbp)
.LBB222:
	.loc 5 549 9
	movq	32(%rbp), %rbx
	.loc 5 550 62
	movq	40(%rbp), %rax
	movq	%rax, %rcx
	call	_ZNKSt7__cxx1112basic_stringIcSt11char_traitsIcESaIcEE16_M_get_allocatorEv
	movq	%rax, -8(%rbp)
	leaq	-49(%rbp), %rax
	movq	-8(%rbp), %rdx
	movq	%rdx, -16(%rbp)
	movq	%rax, -24(%rbp)
	movq	-16(%rbp), %rax
	movq	%rax, -32(%rbp)
	movq	-24(%rbp), %rax
	movq	%rax, -40(%rbp)
	movq	-32(%rbp), %rax
	movq	%rax, -48(%rbp)
.LBB223:
.LBB224:
.LBB225:
.LBB226:
.LBB227:
.LBB228:
.LBB229:
.LBB230:
.LBB231:
	.loc 7 92 58
	nop
.LBE231:
.LBE230:
.LBE229:
	.loc 8 168 38
	nop
.LBE228:
.LBE227:
	.file 10 "D:/Program Files/JetBrains/CLion 2024.2.3/bin/mingw/lib/gcc/x86_64-w64-mingw32/13.1.0/include/c++/bits/alloc_traits.h"
	.loc 10 587 16
	nop
.LBE226:
.LBE225:
	.file 11 "D:/Program Files/JetBrains/CLion 2024.2.3/bin/mingw/lib/gcc/x86_64-w64-mingw32/13.1.0/include/c++/ext/alloc_traits.h"
	.loc 11 98 67
	nop
.LBE224:
.LBE223:
	.loc 5 549 9 discriminator 2
	movq	32(%rbp), %rax
	movq	%rax, %rcx
	call	_ZNSt7__cxx1112basic_stringIcSt11char_traitsIcESaIcEE13_M_local_dataEv
	.loc 5 549 9 is_stmt 0 discriminator 1
	leaq	-49(%rbp), %rdx
	movq	%rdx, %r8
	movq	%rax, %rdx
	movq	%rbx, %rcx
	call	_ZNSt7__cxx1112basic_stringIcSt11char_traitsIcESaIcEE12_Alloc_hiderC1EPcOS3_
.LBB232:
.LBB233:
	.loc 8 184 31 is_stmt 1
	nop
.LBE233:
.LBE232:
	.loc 5 552 45
	movq	40(%rbp), %rax
	movq	%rax, %rcx
	call	_ZNKSt7__cxx1112basic_stringIcSt11char_traitsIcESaIcEE7_M_dataEv
	movq	%rax, %rbx
	.loc 5 552 62 discriminator 1
	movq	40(%rbp), %rax
	movq	%rax, %rcx
	call	_ZNKSt7__cxx1112basic_stringIcSt11char_traitsIcESaIcEE6lengthEv
	.loc 5 552 14 discriminator 2
	addq	%rax, %rbx
	movq	40(%rbp), %rax
	movq	%rax, %rcx
	call	_ZNKSt7__cxx1112basic_stringIcSt11char_traitsIcESaIcEE7_M_dataEv
	movq	%rax, %rdx
	.loc 5 552 14 is_stmt 0 discriminator 3
	movq	32(%rbp), %rax
	movl	%esi, %r9d
	movq	%rbx, %r8
	movq	%rax, %rcx
.LEHB11:
	call	_ZNSt7__cxx1112basic_stringIcSt11char_traitsIcESaIcEE12_M_constructIPcEEvT_S7_St20forward_iterator_tag
.LEHE11:
.LBE222:
	.loc 5 554 7 is_stmt 1
	jmp	.L73
.L72:
.LBB234:
	movq	%rax, %rbx
	movq	32(%rbp), %rax
	movq	%rax, %rcx
	call	_ZNSt7__cxx1112basic_stringIcSt11char_traitsIcESaIcEE12_Alloc_hiderD1Ev
	movq	%rbx, %rax
	movq	%rax, %rcx
.LEHB12:
	call	_Unwind_Resume
	nop
.LEHE12:
.L73:
.LBE234:
	addq	$96, %rsp
	popq	%rbx
	.cfi_restore 3
	popq	%rsi
	.cfi_restore 4
	popq	%rbp
	.cfi_restore 6
	.cfi_def_cfa 7, -72
	ret
	.cfi_endproc
.LFE2766:
	.seh_handler	__gxx_personality_seh0, @unwind, @except
	.seh_handlerdata
.LLSDA2766:
	.byte	0xff
	.byte	0xff
	.byte	0x1
	.uleb128 .LLSDACSE2766-.LLSDACSB2766
.LLSDACSB2766:
	.uleb128 .LEHB11-.LFB2766
	.uleb128 .LEHE11-.LEHB11
	.uleb128 .L72-.LFB2766
	.uleb128 0
	.uleb128 .LEHB12-.LFB2766
	.uleb128 .LEHE12-.LEHB12
	.uleb128 0
	.uleb128 0
.LLSDACSE2766:
	.section	.text$_ZNSt7__cxx1112basic_stringIcSt11char_traitsIcESaIcEEC1ERKS4_,"x"
	.linkonce discard
	.seh_endproc
	.section .rdata,"dr"
	.align 8
.LC7:
	.ascii "basic_string: construction from null is not valid\0"
	.section	.text$_ZNSt7__cxx1112basic_stringIcSt11char_traitsIcESaIcEEC1IS3_EEPKcRKS3_,"x"
	.linkonce discard
	.align 2
	.globl	_ZNSt7__cxx1112basic_stringIcSt11char_traitsIcESaIcEEC1IS3_EEPKcRKS3_
	.def	_ZNSt7__cxx1112basic_stringIcSt11char_traitsIcESaIcEEC1IS3_EEPKcRKS3_;	.scl	2;	.type	32;	.endef
	.seh_proc	_ZNSt7__cxx1112basic_stringIcSt11char_traitsIcESaIcEEC1IS3_EEPKcRKS3_
_ZNSt7__cxx1112basic_stringIcSt11char_traitsIcESaIcEEC1IS3_EEPKcRKS3_:
.LFB2769:
	.loc 5 642 7
	.cfi_startproc
	pushq	%rbp
	.seh_pushreg	%rbp
	.cfi_def_cfa_offset 16
	.cfi_offset 6, -16
	pushq	%rsi
	.seh_pushreg	%rsi
	.cfi_def_cfa_offset 24
	.cfi_offset 4, -24
	pushq	%rbx
	.seh_pushreg	%rbx
	.cfi_def_cfa_offset 32
	.cfi_offset 3, -32
	subq	$48, %rsp
	.seh_stackalloc	48
	.cfi_def_cfa_offset 80
	leaq	48(%rsp), %rbp
	.seh_setframe	%rbp, 48
	.cfi_def_cfa 6, 32
	.seh_endprologue
	movq	%rcx, 32(%rbp)
	movq	%rdx, 40(%rbp)
	movq	%r8, 48(%rbp)
.LBB235:
	.loc 5 643 9
	movq	32(%rbp), %rbx
	movq	32(%rbp), %rax
	movq	%rax, %rcx
	call	_ZNSt7__cxx1112basic_stringIcSt11char_traitsIcESaIcEE13_M_local_dataEv
	.loc 5 643 9 is_stmt 0 discriminator 1
	movq	48(%rbp), %rdx
	movq	%rdx, %r8
	movq	%rax, %rdx
	movq	%rbx, %rcx
	call	_ZNSt7__cxx1112basic_stringIcSt11char_traitsIcESaIcEE12_Alloc_hiderC1EPcRKS3_
.LBB236:
	.loc 5 646 2 is_stmt 1
	cmpq	$0, 40(%rbp)
	jne	.L75
	.loc 5 647 28
	leaq	.LC7(%rip), %rax
	movq	%rax, %rcx
.LEHB13:
	call	_ZSt19__throw_logic_errorPKc
.L75:
	.loc 5 649 49
	movq	40(%rbp), %rax
	movq	%rax, %rcx
	call	_ZNSt11char_traitsIcE6lengthEPKc
	.loc 5 649 16 discriminator 1
	movq	40(%rbp), %rdx
	addq	%rdx, %rax
	movq	%rax, -8(%rbp)
	.loc 5 650 14
	movq	-8(%rbp), %rcx
	movq	40(%rbp), %rdx
	movq	32(%rbp), %rax
	movl	%esi, %r9d
	movq	%rcx, %r8
	movq	%rax, %rcx
	call	_ZNSt7__cxx1112basic_stringIcSt11char_traitsIcESaIcEE12_M_constructIPKcEEvT_S8_St20forward_iterator_tag
.LEHE13:
.LBE236:
.LBE235:
	.loc 5 651 7
	jmp	.L78
.L77:
.LBB237:
	movq	%rax, %rbx
	movq	32(%rbp), %rax
	movq	%rax, %rcx
	call	_ZNSt7__cxx1112basic_stringIcSt11char_traitsIcESaIcEE12_Alloc_hiderD1Ev
	movq	%rbx, %rax
	movq	%rax, %rcx
.LEHB14:
	call	_Unwind_Resume
	nop
.LEHE14:
.L78:
.LBE237:
	addq	$48, %rsp
	popq	%rbx
	.cfi_restore 3
	popq	%rsi
	.cfi_restore 4
	popq	%rbp
	.cfi_restore 6
	.cfi_def_cfa 7, -24
	ret
	.cfi_endproc
.LFE2769:
	.seh_handler	__gxx_personality_seh0, @unwind, @except
	.seh_handlerdata
.LLSDA2769:
	.byte	0xff
	.byte	0xff
	.byte	0x1
	.uleb128 .LLSDACSE2769-.LLSDACSB2769
.LLSDACSB2769:
	.uleb128 .LEHB13-.LFB2769
	.uleb128 .LEHE13-.LEHB13
	.uleb128 .L77-.LFB2769
	.uleb128 0
	.uleb128 .LEHB14-.LFB2769
	.uleb128 .LEHE14-.LEHB14
	.uleb128 0
	.uleb128 0
.LLSDACSE2769:
	.section	.text$_ZNSt7__cxx1112basic_stringIcSt11char_traitsIcESaIcEEC1IS3_EEPKcRKS3_,"x"
	.linkonce discard
	.seh_endproc
	.section	.text$_ZSt7forwardIRKcEOT_RNSt16remove_referenceIS2_E4typeE,"x"
	.linkonce discard
	.globl	_ZSt7forwardIRKcEOT_RNSt16remove_referenceIS2_E4typeE
	.def	_ZSt7forwardIRKcEOT_RNSt16remove_referenceIS2_E4typeE;	.scl	2;	.type	32;	.endef
	.seh_proc	_ZSt7forwardIRKcEOT_RNSt16remove_referenceIS2_E4typeE
_ZSt7forwardIRKcEOT_RNSt16remove_referenceIS2_E4typeE:
.LFB2771:
	.file 12 "D:/Program Files/JetBrains/CLion 2024.2.3/bin/mingw/lib/gcc/x86_64-w64-mingw32/13.1.0/include/c++/bits/move.h"
	.loc 12 77 5
	.cfi_startproc
	pushq	%rbp
	.seh_pushreg	%rbp
	.cfi_def_cfa_offset 16
	.cfi_offset 6, -16
	movq	%rsp, %rbp
	.seh_setframe	%rbp, 0
	.cfi_def_cfa_register 6
	.seh_endprologue
	movq	%rcx, 16(%rbp)
	.loc 12 78 36
	movq	16(%rbp), %rax
	.loc 12 78 39
	popq	%rbp
	.cfi_restore 6
	.cfi_def_cfa 7, 8
	ret
	.cfi_endproc
.LFE2771:
	.seh_endproc
	.section	.text$_ZN9__gnu_cxx11char_traitsIcE2eqERKcS3_,"x"
	.linkonce discard
	.globl	_ZN9__gnu_cxx11char_traitsIcE2eqERKcS3_
	.def	_ZN9__gnu_cxx11char_traitsIcE2eqERKcS3_;	.scl	2;	.type	32;	.endef
	.seh_proc	_ZN9__gnu_cxx11char_traitsIcE2eqERKcS3_
_ZN9__gnu_cxx11char_traitsIcE2eqERKcS3_:
.LFB2772:
	.loc 4 136 7
	.cfi_startproc
	pushq	%rbp
	.seh_pushreg	%rbp
	.cfi_def_cfa_offset 16
	.cfi_offset 6, -16
	movq	%rsp, %rbp
	.seh_setframe	%rbp, 0
	.cfi_def_cfa_register 6
	.seh_endprologue
	movq	%rcx, 16(%rbp)
	movq	%rdx, 24(%rbp)
	.loc 4 137 21
	movq	16(%rbp), %rax
	movzbl	(%rax), %edx
	movq	24(%rbp), %rax
	movzbl	(%rax), %eax
	.loc 4 137 24
	cmpb	%al, %dl
	sete	%al
	.loc 4 137 30
	popq	%rbp
	.cfi_restore 6
	.cfi_def_cfa 7, 8
	ret
	.cfi_endproc
.LFE2772:
	.seh_endproc
	.section	.text$_ZNKSt7__cxx1112basic_stringIcSt11char_traitsIcESaIcEE7_M_dataEv,"x"
	.linkonce discard
	.align 2
	.globl	_ZNKSt7__cxx1112basic_stringIcSt11char_traitsIcESaIcEE7_M_dataEv
	.def	_ZNKSt7__cxx1112basic_stringIcSt11char_traitsIcESaIcEE7_M_dataEv;	.scl	2;	.type	32;	.endef
	.seh_proc	_ZNKSt7__cxx1112basic_stringIcSt11char_traitsIcESaIcEE7_M_dataEv
_ZNKSt7__cxx1112basic_stringIcSt11char_traitsIcESaIcEE7_M_dataEv:
.LFB2789:
	.loc 5 233 7
	.cfi_startproc
	pushq	%rbp
	.seh_pushreg	%rbp
	.cfi_def_cfa_offset 16
	.cfi_offset 6, -16
	movq	%rsp, %rbp
	.seh_setframe	%rbp, 0
	.cfi_def_cfa_register 6
	.seh_endprologue
	movq	%rcx, 16(%rbp)
	.loc 5 234 28
	movq	16(%rbp), %rax
	movq	(%rax), %rax
	.loc 5 234 34
	popq	%rbp
	.cfi_restore 6
	.cfi_def_cfa 7, 8
	ret
	.cfi_endproc
.LFE2789:
	.seh_endproc
	.section	.text$_ZNSt7__cxx1112basic_stringIcSt11char_traitsIcESaIcEE13_M_local_dataEv,"x"
	.linkonce discard
	.align 2
	.globl	_ZNSt7__cxx1112basic_stringIcSt11char_traitsIcESaIcEE13_M_local_dataEv
	.def	_ZNSt7__cxx1112basic_stringIcSt11char_traitsIcESaIcEE13_M_local_dataEv;	.scl	2;	.type	32;	.endef
	.seh_proc	_ZNSt7__cxx1112basic_stringIcSt11char_traitsIcESaIcEE13_M_local_dataEv
_ZNSt7__cxx1112basic_stringIcSt11char_traitsIcESaIcEE13_M_local_dataEv:
.LFB2793:
	.loc 5 238 7
	.cfi_startproc
	pushq	%rbp
	.seh_pushreg	%rbp
	.cfi_def_cfa_offset 16
	.cfi_offset 6, -16
	movq	%rsp, %rbp
	.seh_setframe	%rbp, 0
	.cfi_def_cfa_register 6
	subq	$32, %rsp
	.seh_stackalloc	32
	.seh_endprologue
	movq	%rcx, 16(%rbp)
	.loc 5 241 51
	movq	16(%rbp), %rax
	addq	$16, %rax
	.loc 5 241 49
	movq	%rax, %rcx
	call	_ZNSt19__ptr_traits_ptr_toIPccLb0EE10pointer_toERc
	.loc 5 245 7
	addq	$32, %rsp
	popq	%rbp
	.cfi_restore 6
	.cfi_def_cfa 7, 8
	ret
	.cfi_endproc
.LFE2793:
	.seh_endproc
	.section	.text$_ZNSt7__cxx1112basic_stringIcSt11char_traitsIcESaIcEE12_Alloc_hiderC1EPcRKS3_,"x"
	.linkonce discard
	.align 2
	.globl	_ZNSt7__cxx1112basic_stringIcSt11char_traitsIcESaIcEE12_Alloc_hiderC1EPcRKS3_
	.def	_ZNSt7__cxx1112basic_stringIcSt11char_traitsIcESaIcEE12_Alloc_hiderC1EPcRKS3_;	.scl	2;	.type	32;	.endef
	.seh_proc	_ZNSt7__cxx1112basic_stringIcSt11char_traitsIcESaIcEE12_Alloc_hiderC1EPcRKS3_
_ZNSt7__cxx1112basic_stringIcSt11char_traitsIcESaIcEE12_Alloc_hiderC1EPcRKS3_:
.LFB2796:
	.loc 5 199 2
	.cfi_startproc
	pushq	%rbp
	.seh_pushreg	%rbp
	.cfi_def_cfa_offset 16
	.cfi_offset 6, -16
	movq	%rsp, %rbp
	.seh_setframe	%rbp, 0
	.cfi_def_cfa_register 6
	subq	$32, %rsp
	.seh_stackalloc	32
	.seh_endprologue
	movq	%rcx, 16(%rbp)
	movq	%rdx, 24(%rbp)
	movq	%r8, 32(%rbp)
	movq	16(%rbp), %rax
	movq	%rax, -8(%rbp)
	movq	32(%rbp), %rax
	movq	%rax, -16(%rbp)
	movq	-8(%rbp), %rax
	movq	%rax, -24(%rbp)
	movq	-16(%rbp), %rax
	movq	%rax, -32(%rbp)
.LBB238:
.LBB239:
.LBB240:
.LBB241:
.LBB242:
.LBB243:
	.loc 7 92 58
	nop
.LBE243:
.LBE242:
.LBE241:
	.loc 8 168 38
	nop
.LBE240:
.LBE239:
	.loc 5 200 25 discriminator 1
	movq	16(%rbp), %rax
	movq	24(%rbp), %rdx
	movq	%rdx, (%rax)
.LBE238:
	.loc 5 200 39
	nop
	addq	$32, %rsp
	popq	%rbp
	.cfi_restore 6
	.cfi_def_cfa 7, 8
	ret
	.cfi_endproc
.LFE2796:
	.seh_endproc
	.section	.text$_ZNSt7__cxx1112basic_stringIcSt11char_traitsIcESaIcEE10_M_disposeEv,"x"
	.linkonce discard
	.align 2
	.globl	_ZNSt7__cxx1112basic_stringIcSt11char_traitsIcESaIcEE10_M_disposeEv
	.def	_ZNSt7__cxx1112basic_stringIcSt11char_traitsIcESaIcEE10_M_disposeEv;	.scl	2;	.type	32;	.endef
	.seh_proc	_ZNSt7__cxx1112basic_stringIcSt11char_traitsIcESaIcEE10_M_disposeEv
_ZNSt7__cxx1112basic_stringIcSt11char_traitsIcESaIcEE10_M_disposeEv:
.LFB2798:
	.loc 5 291 7
	.cfi_startproc
	pushq	%rbp
	.seh_pushreg	%rbp
	.cfi_def_cfa_offset 16
	.cfi_offset 6, -16
	movq	%rsp, %rbp
	.seh_setframe	%rbp, 0
	.cfi_def_cfa_register 6
	subq	$32, %rsp
	.seh_stackalloc	32
	.seh_endprologue
	movq	%rcx, 16(%rbp)
	.loc 5 293 18
	movq	16(%rbp), %rax
	movq	%rax, %rcx
	call	_ZNKSt7__cxx1112basic_stringIcSt11char_traitsIcESaIcEE11_M_is_localEv
	.loc 5 293 18 is_stmt 0 discriminator 1
	xorl	$1, %eax
	.loc 5 293 2 is_stmt 1 discriminator 1
	testb	%al, %al
	je	.L90
	.loc 5 294 14
	movq	16(%rbp), %rax
	movq	16(%rax), %rdx
	movq	16(%rbp), %rax
	movq	%rax, %rcx
	call	_ZNSt7__cxx1112basic_stringIcSt11char_traitsIcESaIcEE10_M_destroyEy
.L90:
	.loc 5 295 7
	nop
	addq	$32, %rsp
	popq	%rbp
	.cfi_restore 6
	.cfi_def_cfa 7, 8
	ret
	.cfi_endproc
.LFE2798:
	.seh_endproc
	.section	.text$_ZNSt7__cxx1112basic_stringIcSt11char_traitsIcESaIcEE16_M_get_allocatorEv,"x"
	.linkonce discard
	.align 2
	.globl	_ZNSt7__cxx1112basic_stringIcSt11char_traitsIcESaIcEE16_M_get_allocatorEv
	.def	_ZNSt7__cxx1112basic_stringIcSt11char_traitsIcESaIcEE16_M_get_allocatorEv;	.scl	2;	.type	32;	.endef
	.seh_proc	_ZNSt7__cxx1112basic_stringIcSt11char_traitsIcESaIcEE16_M_get_allocatorEv
_ZNSt7__cxx1112basic_stringIcSt11char_traitsIcESaIcEE16_M_get_allocatorEv:
.LFB2799:
	.loc 5 347 7
	.cfi_startproc
	pushq	%rbp
	.seh_pushreg	%rbp
	.cfi_def_cfa_offset 16
	.cfi_offset 6, -16
	movq	%rsp, %rbp
	.seh_setframe	%rbp, 0
	.cfi_def_cfa_register 6
	.seh_endprologue
	movq	%rcx, 16(%rbp)
	.loc 5 348 16
	movq	16(%rbp), %rax
	.loc 5 348 29
	popq	%rbp
	.cfi_restore 6
	.cfi_def_cfa 7, 8
	ret
	.cfi_endproc
.LFE2799:
	.seh_endproc
	.section	.text$_ZSt4moveIRSaIcEEONSt16remove_referenceIT_E4typeEOS3_,"x"
	.linkonce discard
	.globl	_ZSt4moveIRSaIcEEONSt16remove_referenceIT_E4typeEOS3_
	.def	_ZSt4moveIRSaIcEEONSt16remove_referenceIT_E4typeEOS3_;	.scl	2;	.type	32;	.endef
	.seh_proc	_ZSt4moveIRSaIcEEONSt16remove_referenceIT_E4typeEOS3_
_ZSt4moveIRSaIcEEONSt16remove_referenceIT_E4typeEOS3_:
.LFB2800:
	.loc 12 104 5
	.cfi_startproc
	pushq	%rbp
	.seh_pushreg	%rbp
	.cfi_def_cfa_offset 16
	.cfi_offset 6, -16
	movq	%rsp, %rbp
	.seh_setframe	%rbp, 0
	.cfi_def_cfa_register 6
	.seh_endprologue
	movq	%rcx, 16(%rbp)
	.loc 12 105 74
	movq	16(%rbp), %rax
	.loc 12 105 77
	popq	%rbp
	.cfi_restore 6
	.cfi_def_cfa 7, 8
	ret
	.cfi_endproc
.LFE2800:
	.seh_endproc
	.section	.text$_ZNSt7__cxx1112basic_stringIcSt11char_traitsIcESaIcEE12_Alloc_hiderC1EPcOS3_,"x"
	.linkonce discard
	.align 2
	.globl	_ZNSt7__cxx1112basic_stringIcSt11char_traitsIcESaIcEE12_Alloc_hiderC1EPcOS3_
	.def	_ZNSt7__cxx1112basic_stringIcSt11char_traitsIcESaIcEE12_Alloc_hiderC1EPcOS3_;	.scl	2;	.type	32;	.endef
	.seh_proc	_ZNSt7__cxx1112basic_stringIcSt11char_traitsIcESaIcEE12_Alloc_hiderC1EPcOS3_
_ZNSt7__cxx1112basic_stringIcSt11char_traitsIcESaIcEE12_Alloc_hiderC1EPcOS3_:
.LFB2803:
	.loc 5 203 2
	.cfi_startproc
	pushq	%rbp
	.seh_pushreg	%rbp
	.cfi_def_cfa_offset 16
	.cfi_offset 6, -16
	movq	%rsp, %rbp
	.seh_setframe	%rbp, 0
	.cfi_def_cfa_register 6
	subq	$64, %rsp
	.seh_stackalloc	64
	.seh_endprologue
	movq	%rcx, 16(%rbp)
	movq	%rdx, 24(%rbp)
	movq	%r8, 32(%rbp)
.LBB244:
	.loc 5 204 28
	movq	32(%rbp), %rax
	movq	%rax, %rcx
	call	_ZSt4moveIRSaIcEEONSt16remove_referenceIT_E4typeEOS3_
	movq	16(%rbp), %rdx
	movq	%rdx, -8(%rbp)
	movq	%rax, -16(%rbp)
	movq	-8(%rbp), %rax
	movq	%rax, -24(%rbp)
	movq	-16(%rbp), %rax
	movq	%rax, -32(%rbp)
.LBB245:
.LBB246:
.LBB247:
.LBB248:
.LBB249:
	.loc 7 92 58
	nop
.LBE249:
.LBE248:
.LBE247:
	.loc 8 168 38
	nop
.LBE246:
.LBE245:
	.loc 5 204 36 discriminator 2
	movq	16(%rbp), %rax
	movq	24(%rbp), %rdx
	movq	%rdx, (%rax)
.LBE244:
	.loc 5 204 50
	nop
	addq	$64, %rsp
	popq	%rbp
	.cfi_restore 6
	.cfi_def_cfa 7, 8
	ret
	.cfi_endproc
.LFE2803:
	.seh_endproc
	.section	.text$_ZNKSt7__cxx1112basic_stringIcSt11char_traitsIcESaIcEE11_M_is_localEv,"x"
	.linkonce discard
	.align 2
	.globl	_ZNKSt7__cxx1112basic_stringIcSt11char_traitsIcESaIcEE11_M_is_localEv
	.def	_ZNKSt7__cxx1112basic_stringIcSt11char_traitsIcESaIcEE11_M_is_localEv;	.scl	2;	.type	32;	.endef
	.seh_proc	_ZNKSt7__cxx1112basic_stringIcSt11char_traitsIcESaIcEE11_M_is_localEv
_ZNKSt7__cxx1112basic_stringIcSt11char_traitsIcESaIcEE11_M_is_localEv:
.LFB2804:
	.loc 5 273 7
	.cfi_startproc
	pushq	%rbp
	.seh_pushreg	%rbp
	.cfi_def_cfa_offset 16
	.cfi_offset 6, -16
	pushq	%rbx
	.seh_pushreg	%rbx
	.cfi_def_cfa_offset 24
	.cfi_offset 3, -24
	subq	$40, %rsp
	.seh_stackalloc	40
	.cfi_def_cfa_offset 64
	leaq	32(%rsp), %rbp
	.seh_setframe	%rbp, 32
	.cfi_def_cfa 6, 32
	.seh_endprologue
	movq	%rcx, 32(%rbp)
	.loc 5 275 13
	movq	32(%rbp), %rax
	movq	%rax, %rcx
	call	_ZNKSt7__cxx1112basic_stringIcSt11char_traitsIcESaIcEE7_M_dataEv
	movq	%rax, %rbx
	.loc 5 275 32 discriminator 1
	movq	32(%rbp), %rax
	movq	%rax, %rcx
	call	_ZNKSt7__cxx1112basic_stringIcSt11char_traitsIcESaIcEE13_M_local_dataEv
	.loc 5 275 16 discriminator 2
	cmpq	%rax, %rbx
	sete	%al
	.loc 5 275 2 discriminator 2
	testb	%al, %al
	je	.L97
	.loc 5 277 10
	movq	32(%rbp), %rax
	movq	8(%rax), %rax
	.loc 5 277 6
	cmpq	$15, %rax
	.loc 5 279 13
	movl	$1, %eax
	jmp	.L99
.L97:
	.loc 5 281 9
	movl	$0, %eax
.L99:
	.loc 5 282 7
	addq	$40, %rsp
	popq	%rbx
	.cfi_restore 3
	popq	%rbp
	.cfi_restore 6
	.cfi_def_cfa 7, -24
	ret
	.cfi_endproc
.LFE2804:
	.seh_endproc
	.section	.text$_ZNKSt7__cxx1112basic_stringIcSt11char_traitsIcESaIcEE6lengthEv,"x"
	.linkonce discard
	.align 2
	.globl	_ZNKSt7__cxx1112basic_stringIcSt11char_traitsIcESaIcEE6lengthEv
	.def	_ZNKSt7__cxx1112basic_stringIcSt11char_traitsIcESaIcEE6lengthEv;	.scl	2;	.type	32;	.endef
	.seh_proc	_ZNKSt7__cxx1112basic_stringIcSt11char_traitsIcESaIcEE6lengthEv
_ZNKSt7__cxx1112basic_stringIcSt11char_traitsIcESaIcEE6lengthEv:
.LFB2805:
	.loc 5 1077 7
	.cfi_startproc
	pushq	%rbp
	.seh_pushreg	%rbp
	.cfi_def_cfa_offset 16
	.cfi_offset 6, -16
	movq	%rsp, %rbp
	.seh_setframe	%rbp, 0
	.cfi_def_cfa_register 6
	.seh_endprologue
	movq	%rcx, 16(%rbp)
	.loc 5 1078 16
	movq	16(%rbp), %rax
	movq	8(%rax), %rax
	.loc 5 1078 34
	popq	%rbp
	.cfi_restore 6
	.cfi_def_cfa 7, 8
	ret
	.cfi_endproc
.LFE2805:
	.seh_endproc
	.section	.text$_ZNSt7__cxx1112basic_stringIcSt11char_traitsIcESaIcEE7_M_dataEPc,"x"
	.linkonce discard
	.align 2
	.globl	_ZNSt7__cxx1112basic_stringIcSt11char_traitsIcESaIcEE7_M_dataEPc
	.def	_ZNSt7__cxx1112basic_stringIcSt11char_traitsIcESaIcEE7_M_dataEPc;	.scl	2;	.type	32;	.endef
	.seh_proc	_ZNSt7__cxx1112basic_stringIcSt11char_traitsIcESaIcEE7_M_dataEPc
_ZNSt7__cxx1112basic_stringIcSt11char_traitsIcESaIcEE7_M_dataEPc:
.LFB2806:
	.loc 5 223 7
	.cfi_startproc
	pushq	%rbp
	.seh_pushreg	%rbp
	.cfi_def_cfa_offset 16
	.cfi_offset 6, -16
	movq	%rsp, %rbp
	.seh_setframe	%rbp, 0
	.cfi_def_cfa_register 6
	.seh_endprologue
	movq	%rcx, 16(%rbp)
	movq	%rdx, 24(%rbp)
	.loc 5 224 26
	movq	16(%rbp), %rax
	movq	24(%rbp), %rdx
	movq	%rdx, (%rax)
	.loc 5 224 33
	nop
	popq	%rbp
	.cfi_restore 6
	.cfi_def_cfa 7, 8
	ret
	.cfi_endproc
.LFE2806:
	.seh_endproc
	.section	.text$_ZNSt7__cxx1112basic_stringIcSt11char_traitsIcESaIcEE11_M_capacityEy,"x"
	.linkonce discard
	.align 2
	.globl	_ZNSt7__cxx1112basic_stringIcSt11char_traitsIcESaIcEE11_M_capacityEy
	.def	_ZNSt7__cxx1112basic_stringIcSt11char_traitsIcESaIcEE11_M_capacityEy;	.scl	2;	.type	32;	.endef
	.seh_proc	_ZNSt7__cxx1112basic_stringIcSt11char_traitsIcESaIcEE11_M_capacityEy
_ZNSt7__cxx1112basic_stringIcSt11char_traitsIcESaIcEE11_M_capacityEy:
.LFB2807:
	.loc 5 260 7
	.cfi_startproc
	pushq	%rbp
	.seh_pushreg	%rbp
	.cfi_def_cfa_offset 16
	.cfi_offset 6, -16
	movq	%rsp, %rbp
	.seh_setframe	%rbp, 0
	.cfi_def_cfa_register 6
	.seh_endprologue
	movq	%rcx, 16(%rbp)
	movq	%rdx, 24(%rbp)
	.loc 5 261 31
	movq	16(%rbp), %rax
	movq	24(%rbp), %rdx
	movq	%rdx, 16(%rax)
	.loc 5 261 45
	nop
	popq	%rbp
	.cfi_restore 6
	.cfi_def_cfa 7, 8
	ret
	.cfi_endproc
.LFE2807:
	.seh_endproc
	.section	.text$_ZNSt7__cxx1112basic_stringIcSt11char_traitsIcESaIcEE9_M_lengthEy,"x"
	.linkonce discard
	.align 2
	.globl	_ZNSt7__cxx1112basic_stringIcSt11char_traitsIcESaIcEE9_M_lengthEy
	.def	_ZNSt7__cxx1112basic_stringIcSt11char_traitsIcESaIcEE9_M_lengthEy;	.scl	2;	.type	32;	.endef
	.seh_proc	_ZNSt7__cxx1112basic_stringIcSt11char_traitsIcESaIcEE9_M_lengthEy
_ZNSt7__cxx1112basic_stringIcSt11char_traitsIcESaIcEE9_M_lengthEy:
.LFB2808:
	.loc 5 228 7
	.cfi_startproc
	pushq	%rbp
	.seh_pushreg	%rbp
	.cfi_def_cfa_offset 16
	.cfi_offset 6, -16
	movq	%rsp, %rbp
	.seh_setframe	%rbp, 0
	.cfi_def_cfa_register 6
	.seh_endprologue
	movq	%rcx, 16(%rbp)
	movq	%rdx, 24(%rbp)
	.loc 5 229 26
	movq	16(%rbp), %rax
	movq	24(%rbp), %rdx
	movq	%rdx, 8(%rax)
	.loc 5 229 38
	nop
	popq	%rbp
	.cfi_restore 6
	.cfi_def_cfa 7, 8
	ret
	.cfi_endproc
.LFE2808:
	.seh_endproc
	.section	.text$_ZNSt7__cxx1112basic_stringIcSt11char_traitsIcESaIcEE13_M_set_lengthEy,"x"
	.linkonce discard
	.align 2
	.globl	_ZNSt7__cxx1112basic_stringIcSt11char_traitsIcESaIcEE13_M_set_lengthEy
	.def	_ZNSt7__cxx1112basic_stringIcSt11char_traitsIcESaIcEE13_M_set_lengthEy;	.scl	2;	.type	32;	.endef
	.seh_proc	_ZNSt7__cxx1112basic_stringIcSt11char_traitsIcESaIcEE13_M_set_lengthEy
_ZNSt7__cxx1112basic_stringIcSt11char_traitsIcESaIcEE13_M_set_lengthEy:
.LFB2809:
	.loc 5 265 7
	.cfi_startproc
	pushq	%rbp
	.seh_pushreg	%rbp
	.cfi_def_cfa_offset 16
	.cfi_offset 6, -16
	movq	%rsp, %rbp
	.seh_setframe	%rbp, 0
	.cfi_def_cfa_register 6
	subq	$48, %rsp
	.seh_stackalloc	48
	.seh_endprologue
	movq	%rcx, 16(%rbp)
	movq	%rdx, 24(%rbp)
	.loc 5 267 11
	movq	24(%rbp), %rdx
	movq	16(%rbp), %rax
	movq	%rax, %rcx
	call	_ZNSt7__cxx1112basic_stringIcSt11char_traitsIcESaIcEE9_M_lengthEy
	.loc 5 268 21
	movb	$0, -1(%rbp)
	.loc 5 268 29
	movq	16(%rbp), %rax
	movq	%rax, %rcx
	call	_ZNKSt7__cxx1112basic_stringIcSt11char_traitsIcESaIcEE7_M_dataEv
	.loc 5 268 31 discriminator 1
	movq	24(%rbp), %rdx
	leaq	(%rax,%rdx), %rcx
	.loc 5 268 21 discriminator 1
	leaq	-1(%rbp), %rax
	movq	%rax, %rdx
	call	_ZNSt11char_traitsIcE6assignERcRKc
	.loc 5 269 7
	nop
	addq	$48, %rsp
	popq	%rbp
	.cfi_restore 6
	.cfi_def_cfa 7, 8
	ret
	.cfi_endproc
.LFE2809:
	.seh_endproc
	.section	.text$_ZZNSt7__cxx1112basic_stringIcSt11char_traitsIcESaIcEE12_M_constructIPKcEEvT_S8_St20forward_iterator_tagEN6_GuardC1EPS4_,"x"
	.linkonce discard
	.align 2
	.globl	_ZZNSt7__cxx1112basic_stringIcSt11char_traitsIcESaIcEE12_M_constructIPKcEEvT_S8_St20forward_iterator_tagEN6_GuardC1EPS4_
	.def	_ZZNSt7__cxx1112basic_stringIcSt11char_traitsIcESaIcEE12_M_constructIPKcEEvT_S8_St20forward_iterator_tagEN6_GuardC1EPS4_;	.scl	2;	.type	32;	.endef
	.seh_proc	_ZZNSt7__cxx1112basic_stringIcSt11char_traitsIcESaIcEE12_M_constructIPKcEEvT_S8_St20forward_iterator_tagEN6_GuardC1EPS4_
_ZZNSt7__cxx1112basic_stringIcSt11char_traitsIcESaIcEE12_M_constructIPKcEEvT_S8_St20forward_iterator_tagEN6_GuardC1EPS4_:
.LFB2821:
	.file 13 "D:/Program Files/JetBrains/CLion 2024.2.3/bin/mingw/lib/gcc/x86_64-w64-mingw32/13.1.0/include/c++/bits/basic_string.tcc"
	.loc 13 235 13
	.cfi_startproc
	pushq	%rbp
	.seh_pushreg	%rbp
	.cfi_def_cfa_offset 16
	.cfi_offset 6, -16
	movq	%rsp, %rbp
	.seh_setframe	%rbp, 0
	.cfi_def_cfa_register 6
	.seh_endprologue
	movq	%rcx, 16(%rbp)
	movq	%rdx, 24(%rbp)
.LBB250:
	.loc 13 235 41
	movq	16(%rbp), %rax
	movq	24(%rbp), %rdx
	movq	%rdx, (%rax)
.LBE250:
	.loc 13 235 59
	nop
	popq	%rbp
	.cfi_restore 6
	.cfi_def_cfa 7, 8
	ret
	.cfi_endproc
.LFE2821:
	.seh_endproc
	.section	.text$_ZZNSt7__cxx1112basic_stringIcSt11char_traitsIcESaIcEE12_M_constructIPKcEEvT_S8_St20forward_iterator_tagEN6_GuardD1Ev,"x"
	.linkonce discard
	.align 2
	.globl	_ZZNSt7__cxx1112basic_stringIcSt11char_traitsIcESaIcEE12_M_constructIPKcEEvT_S8_St20forward_iterator_tagEN6_GuardD1Ev
	.def	_ZZNSt7__cxx1112basic_stringIcSt11char_traitsIcESaIcEE12_M_constructIPKcEEvT_S8_St20forward_iterator_tagEN6_GuardD1Ev;	.scl	2;	.type	32;	.endef
	.seh_proc	_ZZNSt7__cxx1112basic_stringIcSt11char_traitsIcESaIcEE12_M_constructIPKcEEvT_S8_St20forward_iterator_tagEN6_GuardD1Ev
_ZZNSt7__cxx1112basic_stringIcSt11char_traitsIcESaIcEE12_M_constructIPKcEEvT_S8_St20forward_iterator_tagEN6_GuardD1Ev:
.LFB2824:
	.loc 13 238 4
	.cfi_startproc
	pushq	%rbp
	.seh_pushreg	%rbp
	.cfi_def_cfa_offset 16
	.cfi_offset 6, -16
	movq	%rsp, %rbp
	.seh_setframe	%rbp, 0
	.cfi_def_cfa_register 6
	subq	$32, %rsp
	.seh_stackalloc	32
	.seh_endprologue
	movq	%rcx, 16(%rbp)
.LBB251:
	.loc 13 238 20
	movq	16(%rbp), %rax
	movq	(%rax), %rax
	.loc 13 238 16
	testq	%rax, %rax
	je	.L109
	.loc 13 238 32 discriminator 1
	movq	16(%rbp), %rax
	movq	(%rax), %rax
	.loc 13 238 54 discriminator 1
	movq	%rax, %rcx
	call	_ZNSt7__cxx1112basic_stringIcSt11char_traitsIcESaIcEE10_M_disposeEv
.L109:
.LBE251:
	.loc 13 238 58
	nop
	addq	$32, %rsp
	popq	%rbp
	.cfi_restore 6
	.cfi_def_cfa 7, 8
	ret
	.cfi_endproc
.LFE2824:
	.seh_handler	__gxx_personality_seh0, @unwind, @except
	.seh_handlerdata
.LLSDA2824:
	.byte	0xff
	.byte	0xff
	.byte	0x1
	.uleb128 .LLSDACSE2824-.LLSDACSB2824
.LLSDACSB2824:
.LLSDACSE2824:
	.section	.text$_ZZNSt7__cxx1112basic_stringIcSt11char_traitsIcESaIcEE12_M_constructIPKcEEvT_S8_St20forward_iterator_tagEN6_GuardD1Ev,"x"
	.linkonce discard
	.seh_endproc
	.section	.text$_ZNSt7__cxx1112basic_stringIcSt11char_traitsIcESaIcEE12_M_constructIPKcEEvT_S8_St20forward_iterator_tag,"x"
	.linkonce discard
	.align 2
	.globl	_ZNSt7__cxx1112basic_stringIcSt11char_traitsIcESaIcEE12_M_constructIPKcEEvT_S8_St20forward_iterator_tag
	.def	_ZNSt7__cxx1112basic_stringIcSt11char_traitsIcESaIcEE12_M_constructIPKcEEvT_S8_St20forward_iterator_tag;	.scl	2;	.type	32;	.endef
	.seh_proc	_ZNSt7__cxx1112basic_stringIcSt11char_traitsIcESaIcEE12_M_constructIPKcEEvT_S8_St20forward_iterator_tag
_ZNSt7__cxx1112basic_stringIcSt11char_traitsIcESaIcEE12_M_constructIPKcEEvT_S8_St20forward_iterator_tag:
.LFB2818:
	.loc 13 217 7
	.cfi_startproc
	pushq	%rbp
	.seh_pushreg	%rbp
	.cfi_def_cfa_offset 16
	.cfi_offset 6, -16
	movq	%rsp, %rbp
	.seh_setframe	%rbp, 0
	.cfi_def_cfa_register 6
	subq	$112, %rsp
	.seh_stackalloc	112
	.seh_endprologue
	movq	%rcx, 16(%rbp)
	movq	%rdx, 24(%rbp)
	movq	%r8, 32(%rbp)
	movq	24(%rbp), %rax
	movq	%rax, -64(%rbp)
	movq	32(%rbp), %rax
	movq	%rax, -8(%rbp)
.LBB252:
.LBB253:
.LBB254:
.LBB255:
	.file 14 "D:/Program Files/JetBrains/CLion 2024.2.3/bin/mingw/lib/gcc/x86_64-w64-mingw32/13.1.0/include/c++/bits/stl_iterator_base_types.h"
	.loc 14 240 65
	nop
.LBE255:
.LBE254:
	.file 15 "D:/Program Files/JetBrains/CLion 2024.2.3/bin/mingw/lib/gcc/x86_64-w64-mingw32/13.1.0/include/c++/bits/stl_iterator_base_funcs.h"
	.loc 15 151 29
	movq	-64(%rbp), %rax
	movq	%rax, -16(%rbp)
	movq	-8(%rbp), %rax
	movq	%rax, -24(%rbp)
.LBB256:
.LBB257:
	.loc 15 106 23
	movq	-24(%rbp), %rax
	subq	-16(%rbp), %rax
.LBE257:
.LBE256:
	.loc 15 152 42
	nop
.LBE253:
.LBE252:
	.loc 13 221 12 discriminator 1
	movq	%rax, -48(%rbp)
	.loc 13 223 13
	movq	-48(%rbp), %rax
	.loc 13 223 2
	cmpq	$15, %rax
	jbe	.L114
	.loc 13 225 13
	leaq	-48(%rbp), %rdx
	movq	16(%rbp), %rax
	movl	$0, %r8d
	movq	%rax, %rcx
	call	_ZNSt7__cxx1112basic_stringIcSt11char_traitsIcESaIcEE9_M_createERyy
	movq	%rax, %rdx
	.loc 13 225 13 is_stmt 0 discriminator 1
	movq	16(%rbp), %rax
	movq	%rax, %rcx
	call	_ZNSt7__cxx1112basic_stringIcSt11char_traitsIcESaIcEE7_M_dataEPc
	.loc 13 226 17 is_stmt 1
	movq	-48(%rbp), %rdx
	movq	16(%rbp), %rax
	movq	%rax, %rcx
	call	_ZNSt7__cxx1112basic_stringIcSt11char_traitsIcESaIcEE11_M_capacityEy
	jmp	.L115
.L114:
	movq	16(%rbp), %rax
	movq	%rax, -32(%rbp)
.LBB258:
.LBB259:
.LBB260:
	.loc 5 362 32
	call	_ZSt21is_constant_evaluatedv
	.loc 5 362 2 discriminator 1
	testb	%al, %al
	je	.L116
.LBB261:
.LBB262:
	.loc 5 363 19
	movq	$0, -40(%rbp)
	.loc 5 363 4
	jmp	.L117
.L118:
	.loc 5 364 24
	movq	-32(%rbp), %rdx
	movq	-40(%rbp), %rax
	addq	%rdx, %rax
	addq	$16, %rax
	movb	$0, (%rax)
	.loc 5 363 4 discriminator 3
	addq	$1, -40(%rbp)
.L117:
	.loc 5 363 32 discriminator 1
	cmpq	$15, -40(%rbp)
	jbe	.L118
.L116:
.LBE262:
.LBE261:
.LBE260:
	.loc 5 366 22
	movq	-32(%rbp), %rax
	movq	%rax, %rcx
	call	_ZNSt7__cxx1112basic_stringIcSt11char_traitsIcESaIcEE13_M_local_dataEv
	.loc 5 366 23
	nop
.L115:
.LBE259:
.LBE258:
	.loc 13 241 4
	movq	16(%rbp), %rdx
	leaq	-56(%rbp), %rax
	movq	%rax, %rcx
	call	_ZZNSt7__cxx1112basic_stringIcSt11char_traitsIcESaIcEE12_M_constructIPKcEEvT_S8_St20forward_iterator_tagEN6_GuardC1EPS4_
	.loc 13 243 21
	movq	16(%rbp), %rax
	movq	%rax, %rcx
	call	_ZNKSt7__cxx1112basic_stringIcSt11char_traitsIcESaIcEE7_M_dataEv
	movq	%rax, %rcx
	.loc 13 243 21 is_stmt 0 discriminator 1
	movq	32(%rbp), %rdx
	movq	24(%rbp), %rax
	movq	%rdx, %r8
	movq	%rax, %rdx
	call	_ZNSt7__cxx1112basic_stringIcSt11char_traitsIcESaIcEE13_S_copy_charsEPcPKcS7_
	.loc 13 245 21 is_stmt 1
	movq	$0, -56(%rbp)
	.loc 13 247 15
	movq	-48(%rbp), %rdx
	movq	16(%rbp), %rax
	movq	%rax, %rcx
	call	_ZNSt7__cxx1112basic_stringIcSt11char_traitsIcESaIcEE13_M_set_lengthEy
	.loc 13 248 7
	leaq	-56(%rbp), %rax
	movq	%rax, %rcx
	call	_ZZNSt7__cxx1112basic_stringIcSt11char_traitsIcESaIcEE12_M_constructIPKcEEvT_S8_St20forward_iterator_tagEN6_GuardD1Ev
	nop
	addq	$112, %rsp
	popq	%rbp
	.cfi_restore 6
	.cfi_def_cfa 7, 8
	ret
	.cfi_endproc
.LFE2818:
	.seh_endproc
	.section	.text$_ZNKSt7__cxx1112basic_stringIcSt11char_traitsIcESaIcEE8capacityEv,"x"
	.linkonce discard
	.align 2
	.globl	_ZNKSt7__cxx1112basic_stringIcSt11char_traitsIcESaIcEE8capacityEv
	.def	_ZNKSt7__cxx1112basic_stringIcSt11char_traitsIcESaIcEE8capacityEv;	.scl	2;	.type	32;	.endef
	.seh_proc	_ZNKSt7__cxx1112basic_stringIcSt11char_traitsIcESaIcEE8capacityEv
_ZNKSt7__cxx1112basic_stringIcSt11char_traitsIcESaIcEE8capacityEv:
.LFB2886:
	.loc 5 1168 7
	.cfi_startproc
	pushq	%rbp
	.seh_pushreg	%rbp
	.cfi_def_cfa_offset 16
	.cfi_offset 6, -16
	movq	%rsp, %rbp
	.seh_setframe	%rbp, 0
	.cfi_def_cfa_register 6
	subq	$32, %rsp
	.seh_stackalloc	32
	.seh_endprologue
	movq	%rcx, 16(%rbp)
	.loc 5 1170 20
	movq	16(%rbp), %rax
	movq	%rax, %rcx
	call	_ZNKSt7__cxx1112basic_stringIcSt11char_traitsIcESaIcEE11_M_is_localEv
	.loc 5 1170 23 discriminator 1
	testb	%al, %al
	je	.L121
	movl	$15, %eax
	.loc 5 1171 25
	jmp	.L123
.L121:
	.loc 5 1170 23 discriminator 2
	movq	16(%rbp), %rax
	movq	16(%rax), %rax
.L123:
	.loc 5 1172 7
	addq	$32, %rsp
	popq	%rbp
	.cfi_restore 6
	.cfi_def_cfa 7, 8
	ret
	.cfi_endproc
.LFE2886:
	.seh_endproc
	.section	.text$_ZNSt7__cxx1112basic_stringIcSt11char_traitsIcESaIcEE6assignERKS4_,"x"
	.linkonce discard
	.align 2
	.globl	_ZNSt7__cxx1112basic_stringIcSt11char_traitsIcESaIcEE6assignERKS4_
	.def	_ZNSt7__cxx1112basic_stringIcSt11char_traitsIcESaIcEE6assignERKS4_;	.scl	2;	.type	32;	.endef
	.seh_proc	_ZNSt7__cxx1112basic_stringIcSt11char_traitsIcESaIcEE6assignERKS4_
_ZNSt7__cxx1112basic_stringIcSt11char_traitsIcESaIcEE6assignERKS4_:
.LFB2892:
	.loc 5 1576 7
	.cfi_startproc
	pushq	%rbp
	.seh_pushreg	%rbp
	.cfi_def_cfa_offset 16
	.cfi_offset 6, -16
	pushq	%rbx
	.seh_pushreg	%rbx
	.cfi_def_cfa_offset 24
	.cfi_offset 3, -24
	subq	$168, %rsp
	.seh_stackalloc	168
	.cfi_def_cfa_offset 192
	leaq	160(%rsp), %rbp
	.seh_setframe	%rbp, 160
	.cfi_def_cfa 6, 32
	.seh_endprologue
	movq	%rcx, 32(%rbp)
	movq	%rdx, 40(%rbp)
.LBB263:
.LBB264:
.LBB265:
	.loc 11 106 66
	movl	$0, %eax
.LBE265:
.LBE264:
	.loc 5 1579 2 discriminator 1
	testb	%al, %al
	je	.L126
.LBB266:
.LBB267:
.LBB268:
.LBB269:
	.loc 11 118 43
	movl	$1, %eax
.LBE269:
.LBE268:
	.loc 5 1581 41 discriminator 1
	xorl	$1, %eax
	.loc 5 1582 3
	testb	%al, %al
	je	.L128
	.loc 5 1581 59
	movq	32(%rbp), %rax
	movq	%rax, %rcx
	call	_ZNKSt7__cxx1112basic_stringIcSt11char_traitsIcESaIcEE11_M_is_localEv
	.loc 5 1581 59 is_stmt 0 discriminator 1
	xorl	$1, %eax
	.loc 5 1581 44 is_stmt 1 discriminator 1
	testb	%al, %al
	je	.L128
	.loc 5 1582 50
	movq	40(%rbp), %rax
	movq	%rax, %rcx
	call	_ZNKSt7__cxx1112basic_stringIcSt11char_traitsIcESaIcEE16_M_get_allocatorEv
	movq	%rax, %rbx
	.loc 5 1582 22 discriminator 1
	movq	32(%rbp), %rax
	movq	%rax, %rcx
	call	_ZNSt7__cxx1112basic_stringIcSt11char_traitsIcESaIcEE16_M_get_allocatorEv
	movq	%rax, -24(%rbp)
	movq	%rbx, -32(%rbp)
.LBB270:
.LBB271:
	.loc 8 217 16
	movl	$1, %eax
.LBE271:
.LBE270:
	.loc 5 1582 25 discriminator 3
	xorl	$1, %eax
	.loc 5 1582 3 discriminator 3
	testb	%al, %al
	je	.L128
	.loc 5 1582 3 is_stmt 0 discriminator 2
	movl	$1, %eax
	.loc 5 1582 3
	jmp	.L130
.L128:
	.loc 5 1582 3 discriminator 3
	movl	$0, %eax
.L130:
	.loc 5 1581 6 is_stmt 1
	testb	%al, %al
	je	.L131
.LBB272:
.LBB273:
	.loc 5 1586 17
	movq	40(%rbp), %rax
	movq	%rax, %rcx
	call	_ZNKSt7__cxx1112basic_stringIcSt11char_traitsIcESaIcEE4sizeEv
	.loc 5 1586 20 discriminator 1
	cmpq	$15, %rax
	setbe	%al
	.loc 5 1586 3 discriminator 1
	testb	%al, %al
	je	.L132
	.loc 5 1588 17
	movq	32(%rbp), %rax
	movq	16(%rax), %rdx
	movq	32(%rbp), %rax
	movq	%rax, %rcx
	call	_ZNSt7__cxx1112basic_stringIcSt11char_traitsIcESaIcEE10_M_destroyEy
	movq	32(%rbp), %rax
	movq	%rax, -40(%rbp)
.LBB274:
.LBB275:
.LBB276:
	.loc 5 362 32
	call	_ZSt21is_constant_evaluatedv
	.loc 5 362 2 discriminator 1
	testb	%al, %al
	je	.L133
.LBB277:
.LBB278:
	.loc 5 363 19
	movq	$0, -48(%rbp)
	.loc 5 363 4
	jmp	.L134
.L135:
	.loc 5 364 24
	movq	-40(%rbp), %rdx
	movq	-48(%rbp), %rax
	addq	%rdx, %rax
	addq	$16, %rax
	movb	$0, (%rax)
	.loc 5 363 4 discriminator 3
	addq	$1, -48(%rbp)
.L134:
	.loc 5 363 32 discriminator 1
	cmpq	$15, -48(%rbp)
	jbe	.L135
.L133:
.LBE278:
.LBE277:
.LBE276:
	.loc 5 366 22
	movq	-40(%rbp), %rax
	movq	%rax, %rcx
	call	_ZNSt7__cxx1112basic_stringIcSt11char_traitsIcESaIcEE13_M_local_dataEv
	movq	%rax, %rdx
	.loc 5 366 23
	nop
.LBE275:
.LBE274:
	.loc 5 1589 14 discriminator 1
	movq	32(%rbp), %rax
	movq	%rax, %rcx
	call	_ZNSt7__cxx1112basic_stringIcSt11char_traitsIcESaIcEE7_M_dataEPc
	.loc 5 1590 20
	movq	32(%rbp), %rax
	movl	$0, %edx
	movq	%rax, %rcx
	call	_ZNSt7__cxx1112basic_stringIcSt11char_traitsIcESaIcEE13_M_set_lengthEy
	jmp	.L131
.L132:
.LBB279:
	.loc 5 1594 36
	movq	40(%rbp), %rax
	movq	%rax, %rcx
	call	_ZNKSt7__cxx1112basic_stringIcSt11char_traitsIcESaIcEE4sizeEv
	movq	%rax, -8(%rbp)
	.loc 5 1595 44
	movq	40(%rbp), %rax
	movq	%rax, %rcx
	call	_ZNKSt7__cxx1112basic_stringIcSt11char_traitsIcESaIcEE16_M_get_allocatorEv
	movq	%rax, -72(%rbp)
	leaq	-105(%rbp), %rax
	movq	%rax, -80(%rbp)
	movq	-72(%rbp), %rax
	movq	%rax, -88(%rbp)
.LBB280:
.LBB281:
.LBB282:
.LBB283:
.LBB284:
	.loc 7 92 58
	nop
.LBE284:
.LBE283:
.LBE282:
	.loc 8 168 38
	nop
.LBE281:
.LBE280:
	.loc 5 1597 43
	movq	-8(%rbp), %rax
	addq	$1, %rax
	movq	%rax, -56(%rbp)
	leaq	-105(%rbp), %rax
	movq	%rax, -64(%rbp)
	movq	-56(%rbp), %rax
	movq	%rax, -120(%rbp)
.LBB285:
.LBB286:
.LBB287:
.LBB288:
	.loc 8 191 34
	call	_ZSt23__is_constant_evaluatedv
	.loc 8 191 2 discriminator 1
	testb	%al, %al
	je	.L137
	.loc 8 193 32
	movq	-120(%rbp), %rax
	movq	%rax, -120(%rbp)
	movl	$0, %eax
	andl	$1, %eax
	.loc 8 193 6
	testb	%al, %al
	je	.L138
.LEHB15:
	.loc 8 194 41
	call	_ZSt28__throw_bad_array_new_lengthv
.L138:
	.loc 8 195 45
	movq	-120(%rbp), %rax
	movq	%rax, %rcx
	call	_Znwy
	.loc 8 195 50
	jmp	.L139
.L137:
	.loc 8 198 40
	movq	-120(%rbp), %rdx
	movq	-64(%rbp), %rax
	movl	$0, %r8d
	movq	%rax, %rcx
	call	_ZNSt15__new_allocatorIcE8allocateEyPKv
.LEHE15:
	.loc 8 198 47
	nop
.L139:
.LBE288:
.LBE287:
	.loc 10 482 32
	nop
.LBE286:
.LBE285:
	.loc 5 1597 43 discriminator 1
	movq	%rax, -16(%rbp)
	.loc 5 1598 17
	movq	32(%rbp), %rax
	movq	16(%rax), %rdx
	movq	32(%rbp), %rax
	movq	%rax, %rcx
	call	_ZNSt7__cxx1112basic_stringIcSt11char_traitsIcESaIcEE10_M_destroyEy
	.loc 5 1599 14
	movq	-16(%rbp), %rdx
	movq	32(%rbp), %rax
	movq	%rax, %rcx
	call	_ZNSt7__cxx1112basic_stringIcSt11char_traitsIcESaIcEE7_M_dataEPc
	.loc 5 1600 18
	movq	-8(%rbp), %rdx
	movq	32(%rbp), %rax
	movq	%rax, %rcx
	call	_ZNSt7__cxx1112basic_stringIcSt11char_traitsIcESaIcEE11_M_capacityEy
	.loc 5 1601 20
	movq	-8(%rbp), %rdx
	movq	32(%rbp), %rax
	movq	%rax, %rcx
	call	_ZNSt7__cxx1112basic_stringIcSt11char_traitsIcESaIcEE13_M_set_lengthEy
.LBB289:
.LBB290:
	.loc 8 184 31
	nop
.L131:
.LBE290:
.LBE289:
.LBE279:
.LBE273:
.LBE272:
.LBE267:
	.loc 5 1604 69
	movq	40(%rbp), %rax
	movq	%rax, %rcx
	call	_ZNKSt7__cxx1112basic_stringIcSt11char_traitsIcESaIcEE16_M_get_allocatorEv
	movq	%rax, %rbx
	.loc 5 1604 43 discriminator 1
	movq	32(%rbp), %rax
	movq	%rax, %rcx
	call	_ZNSt7__cxx1112basic_stringIcSt11char_traitsIcESaIcEE16_M_get_allocatorEv
	movq	%rax, -96(%rbp)
	movq	%rbx, -104(%rbp)
.LBB296:
.LBB297:
	.loc 10 721 5
	nop
.L126:
.LBE297:
.LBE296:
.LBE266:
.LBE263:
	.loc 5 1607 17
	movq	40(%rbp), %rdx
	movq	32(%rbp), %rax
	movq	%rax, %rcx
.LEHB16:
	call	_ZNSt7__cxx1112basic_stringIcSt11char_traitsIcESaIcEE9_M_assignERKS4_
	.loc 5 1608 10
	movq	32(%rbp), %rax
	jmp	.L144
.L143:
.LBB300:
.LBB299:
.LBB298:
.LBB295:
.LBB294:
.LBB293:
.LBB291:
.LBB292:
	.loc 8 184 31
	nop
	movq	%rax, %rcx
	call	_Unwind_Resume
.LEHE16:
.L144:
.LBE292:
.LBE291:
.LBE293:
.LBE294:
.LBE295:
.LBE298:
.LBE299:
.LBE300:
	.loc 5 1609 7
	addq	$168, %rsp
	popq	%rbx
	.cfi_restore 3
	popq	%rbp
	.cfi_restore 6
	.cfi_def_cfa 7, -152
	ret
	.cfi_endproc
.LFE2892:
	.seh_handler	__gxx_personality_seh0, @unwind, @except
	.seh_handlerdata
.LLSDA2892:
	.byte	0xff
	.byte	0xff
	.byte	0x1
	.uleb128 .LLSDACSE2892-.LLSDACSB2892
.LLSDACSB2892:
	.uleb128 .LEHB15-.LFB2892
	.uleb128 .LEHE15-.LEHB15
	.uleb128 .L143-.LFB2892
	.uleb128 0
	.uleb128 .LEHB16-.LFB2892
	.uleb128 .LEHE16-.LEHB16
	.uleb128 0
	.uleb128 0
.LLSDACSE2892:
	.section	.text$_ZNSt7__cxx1112basic_stringIcSt11char_traitsIcESaIcEE6assignERKS4_,"x"
	.linkonce discard
	.seh_endproc
	.section	.text$_ZNKSt7__cxx1112basic_stringIcSt11char_traitsIcESaIcEE16_M_get_allocatorEv,"x"
	.linkonce discard
	.align 2
	.globl	_ZNKSt7__cxx1112basic_stringIcSt11char_traitsIcESaIcEE16_M_get_allocatorEv
	.def	_ZNKSt7__cxx1112basic_stringIcSt11char_traitsIcESaIcEE16_M_get_allocatorEv;	.scl	2;	.type	32;	.endef
	.seh_proc	_ZNKSt7__cxx1112basic_stringIcSt11char_traitsIcESaIcEE16_M_get_allocatorEv
_ZNKSt7__cxx1112basic_stringIcSt11char_traitsIcESaIcEE16_M_get_allocatorEv:
.LFB2898:
	.loc 5 352 7
	.cfi_startproc
	pushq	%rbp
	.seh_pushreg	%rbp
	.cfi_def_cfa_offset 16
	.cfi_offset 6, -16
	movq	%rsp, %rbp
	.seh_setframe	%rbp, 0
	.cfi_def_cfa_register 6
	.seh_endprologue
	movq	%rcx, 16(%rbp)
	.loc 5 353 16
	movq	16(%rbp), %rax
	.loc 5 353 29
	popq	%rbp
	.cfi_restore 6
	.cfi_def_cfa 7, 8
	ret
	.cfi_endproc
.LFE2898:
	.seh_endproc
	.section	.text$_ZZNSt7__cxx1112basic_stringIcSt11char_traitsIcESaIcEE12_M_constructIPcEEvT_S7_St20forward_iterator_tagEN6_GuardC1EPS4_,"x"
	.linkonce discard
	.align 2
	.globl	_ZZNSt7__cxx1112basic_stringIcSt11char_traitsIcESaIcEE12_M_constructIPcEEvT_S7_St20forward_iterator_tagEN6_GuardC1EPS4_
	.def	_ZZNSt7__cxx1112basic_stringIcSt11char_traitsIcESaIcEE12_M_constructIPcEEvT_S7_St20forward_iterator_tagEN6_GuardC1EPS4_;	.scl	2;	.type	32;	.endef
	.seh_proc	_ZZNSt7__cxx1112basic_stringIcSt11char_traitsIcESaIcEE12_M_constructIPcEEvT_S7_St20forward_iterator_tagEN6_GuardC1EPS4_
_ZZNSt7__cxx1112basic_stringIcSt11char_traitsIcESaIcEE12_M_constructIPcEEvT_S7_St20forward_iterator_tagEN6_GuardC1EPS4_:
.LFB2903:
	.loc 13 235 13
	.cfi_startproc
	pushq	%rbp
	.seh_pushreg	%rbp
	.cfi_def_cfa_offset 16
	.cfi_offset 6, -16
	movq	%rsp, %rbp
	.seh_setframe	%rbp, 0
	.cfi_def_cfa_register 6
	.seh_endprologue
	movq	%rcx, 16(%rbp)
	movq	%rdx, 24(%rbp)
.LBB301:
	.loc 13 235 41
	movq	16(%rbp), %rax
	movq	24(%rbp), %rdx
	movq	%rdx, (%rax)
.LBE301:
	.loc 13 235 59
	nop
	popq	%rbp
	.cfi_restore 6
	.cfi_def_cfa 7, 8
	ret
	.cfi_endproc
.LFE2903:
	.seh_endproc
	.section	.text$_ZZNSt7__cxx1112basic_stringIcSt11char_traitsIcESaIcEE12_M_constructIPcEEvT_S7_St20forward_iterator_tagEN6_GuardD1Ev,"x"
	.linkonce discard
	.align 2
	.globl	_ZZNSt7__cxx1112basic_stringIcSt11char_traitsIcESaIcEE12_M_constructIPcEEvT_S7_St20forward_iterator_tagEN6_GuardD1Ev
	.def	_ZZNSt7__cxx1112basic_stringIcSt11char_traitsIcESaIcEE12_M_constructIPcEEvT_S7_St20forward_iterator_tagEN6_GuardD1Ev;	.scl	2;	.type	32;	.endef
	.seh_proc	_ZZNSt7__cxx1112basic_stringIcSt11char_traitsIcESaIcEE12_M_constructIPcEEvT_S7_St20forward_iterator_tagEN6_GuardD1Ev
_ZZNSt7__cxx1112basic_stringIcSt11char_traitsIcESaIcEE12_M_constructIPcEEvT_S7_St20forward_iterator_tagEN6_GuardD1Ev:
.LFB2906:
	.loc 13 238 4
	.cfi_startproc
	pushq	%rbp
	.seh_pushreg	%rbp
	.cfi_def_cfa_offset 16
	.cfi_offset 6, -16
	movq	%rsp, %rbp
	.seh_setframe	%rbp, 0
	.cfi_def_cfa_register 6
	subq	$32, %rsp
	.seh_stackalloc	32
	.seh_endprologue
	movq	%rcx, 16(%rbp)
.LBB302:
	.loc 13 238 20
	movq	16(%rbp), %rax
	movq	(%rax), %rax
	.loc 13 238 16
	testq	%rax, %rax
	je	.L150
	.loc 13 238 32 discriminator 1
	movq	16(%rbp), %rax
	movq	(%rax), %rax
	.loc 13 238 54 discriminator 1
	movq	%rax, %rcx
	call	_ZNSt7__cxx1112basic_stringIcSt11char_traitsIcESaIcEE10_M_disposeEv
.L150:
.LBE302:
	.loc 13 238 58
	nop
	addq	$32, %rsp
	popq	%rbp
	.cfi_restore 6
	.cfi_def_cfa 7, 8
	ret
	.cfi_endproc
.LFE2906:
	.seh_handler	__gxx_personality_seh0, @unwind, @except
	.seh_handlerdata
.LLSDA2906:
	.byte	0xff
	.byte	0xff
	.byte	0x1
	.uleb128 .LLSDACSE2906-.LLSDACSB2906
.LLSDACSB2906:
.LLSDACSE2906:
	.section	.text$_ZZNSt7__cxx1112basic_stringIcSt11char_traitsIcESaIcEE12_M_constructIPcEEvT_S7_St20forward_iterator_tagEN6_GuardD1Ev,"x"
	.linkonce discard
	.seh_endproc
	.section	.text$_ZNSt7__cxx1112basic_stringIcSt11char_traitsIcESaIcEE12_M_constructIPcEEvT_S7_St20forward_iterator_tag,"x"
	.linkonce discard
	.align 2
	.globl	_ZNSt7__cxx1112basic_stringIcSt11char_traitsIcESaIcEE12_M_constructIPcEEvT_S7_St20forward_iterator_tag
	.def	_ZNSt7__cxx1112basic_stringIcSt11char_traitsIcESaIcEE12_M_constructIPcEEvT_S7_St20forward_iterator_tag;	.scl	2;	.type	32;	.endef
	.seh_proc	_ZNSt7__cxx1112basic_stringIcSt11char_traitsIcESaIcEE12_M_constructIPcEEvT_S7_St20forward_iterator_tag
_ZNSt7__cxx1112basic_stringIcSt11char_traitsIcESaIcEE12_M_constructIPcEEvT_S7_St20forward_iterator_tag:
.LFB2900:
	.loc 13 217 7
	.cfi_startproc
	pushq	%rbp
	.seh_pushreg	%rbp
	.cfi_def_cfa_offset 16
	.cfi_offset 6, -16
	movq	%rsp, %rbp
	.seh_setframe	%rbp, 0
	.cfi_def_cfa_register 6
	subq	$112, %rsp
	.seh_stackalloc	112
	.seh_endprologue
	movq	%rcx, 16(%rbp)
	movq	%rdx, 24(%rbp)
	movq	%r8, 32(%rbp)
	movq	24(%rbp), %rax
	movq	%rax, -64(%rbp)
	movq	32(%rbp), %rax
	movq	%rax, -8(%rbp)
.LBB303:
.LBB304:
.LBB305:
.LBB306:
	.loc 14 240 65
	nop
.LBE306:
.LBE305:
	.loc 15 151 29
	movq	-64(%rbp), %rax
	movq	%rax, -16(%rbp)
	movq	-8(%rbp), %rax
	movq	%rax, -24(%rbp)
.LBB307:
.LBB308:
	.loc 15 106 23
	movq	-24(%rbp), %rax
	subq	-16(%rbp), %rax
.LBE308:
.LBE307:
	.loc 15 152 42
	nop
.LBE304:
.LBE303:
	.loc 13 221 12 discriminator 1
	movq	%rax, -48(%rbp)
	.loc 13 223 13
	movq	-48(%rbp), %rax
	.loc 13 223 2
	cmpq	$15, %rax
	jbe	.L155
	.loc 13 225 13
	leaq	-48(%rbp), %rdx
	movq	16(%rbp), %rax
	movl	$0, %r8d
	movq	%rax, %rcx
	call	_ZNSt7__cxx1112basic_stringIcSt11char_traitsIcESaIcEE9_M_createERyy
	movq	%rax, %rdx
	.loc 13 225 13 is_stmt 0 discriminator 1
	movq	16(%rbp), %rax
	movq	%rax, %rcx
	call	_ZNSt7__cxx1112basic_stringIcSt11char_traitsIcESaIcEE7_M_dataEPc
	.loc 13 226 17 is_stmt 1
	movq	-48(%rbp), %rdx
	movq	16(%rbp), %rax
	movq	%rax, %rcx
	call	_ZNSt7__cxx1112basic_stringIcSt11char_traitsIcESaIcEE11_M_capacityEy
	jmp	.L156
.L155:
	movq	16(%rbp), %rax
	movq	%rax, -32(%rbp)
.LBB309:
.LBB310:
.LBB311:
	.loc 5 362 32
	call	_ZSt21is_constant_evaluatedv
	.loc 5 362 2 discriminator 1
	testb	%al, %al
	je	.L157
.LBB312:
.LBB313:
	.loc 5 363 19
	movq	$0, -40(%rbp)
	.loc 5 363 4
	jmp	.L158
.L159:
	.loc 5 364 24
	movq	-32(%rbp), %rdx
	movq	-40(%rbp), %rax
	addq	%rdx, %rax
	addq	$16, %rax
	movb	$0, (%rax)
	.loc 5 363 4 discriminator 3
	addq	$1, -40(%rbp)
.L158:
	.loc 5 363 32 discriminator 1
	cmpq	$15, -40(%rbp)
	jbe	.L159
.L157:
.LBE313:
.LBE312:
.LBE311:
	.loc 5 366 22
	movq	-32(%rbp), %rax
	movq	%rax, %rcx
	call	_ZNSt7__cxx1112basic_stringIcSt11char_traitsIcESaIcEE13_M_local_dataEv
	.loc 5 366 23
	nop
.L156:
.LBE310:
.LBE309:
	.loc 13 241 4
	movq	16(%rbp), %rdx
	leaq	-56(%rbp), %rax
	movq	%rax, %rcx
	call	_ZZNSt7__cxx1112basic_stringIcSt11char_traitsIcESaIcEE12_M_constructIPcEEvT_S7_St20forward_iterator_tagEN6_GuardC1EPS4_
	.loc 13 243 21
	movq	16(%rbp), %rax
	movq	%rax, %rcx
	call	_ZNKSt7__cxx1112basic_stringIcSt11char_traitsIcESaIcEE7_M_dataEv
	movq	%rax, %rcx
	.loc 13 243 21 is_stmt 0 discriminator 1
	movq	32(%rbp), %rdx
	movq	24(%rbp), %rax
	movq	%rdx, %r8
	movq	%rax, %rdx
	call	_ZNSt7__cxx1112basic_stringIcSt11char_traitsIcESaIcEE13_S_copy_charsEPcS5_S5_
	.loc 13 245 21 is_stmt 1
	movq	$0, -56(%rbp)
	.loc 13 247 15
	movq	-48(%rbp), %rdx
	movq	16(%rbp), %rax
	movq	%rax, %rcx
	call	_ZNSt7__cxx1112basic_stringIcSt11char_traitsIcESaIcEE13_M_set_lengthEy
	.loc 13 248 7
	leaq	-56(%rbp), %rax
	movq	%rax, %rcx
	call	_ZZNSt7__cxx1112basic_stringIcSt11char_traitsIcESaIcEE12_M_constructIPcEEvT_S7_St20forward_iterator_tagEN6_GuardD1Ev
	nop
	addq	$112, %rsp
	popq	%rbp
	.cfi_restore 6
	.cfi_def_cfa 7, 8
	ret
	.cfi_endproc
.LFE2900:
	.seh_endproc
	.section	.text$_ZNSt19__ptr_traits_ptr_toIPccLb0EE10pointer_toERc,"x"
	.linkonce discard
	.globl	_ZNSt19__ptr_traits_ptr_toIPccLb0EE10pointer_toERc
	.def	_ZNSt19__ptr_traits_ptr_toIPccLb0EE10pointer_toERc;	.scl	2;	.type	32;	.endef
	.seh_proc	_ZNSt19__ptr_traits_ptr_toIPccLb0EE10pointer_toERc
_ZNSt19__ptr_traits_ptr_toIPccLb0EE10pointer_toERc:
.LFB2911:
	.file 16 "D:/Program Files/JetBrains/CLion 2024.2.3/bin/mingw/lib/gcc/x86_64-w64-mingw32/13.1.0/include/c++/bits/ptr_traits.h"
	.loc 16 141 7
	.cfi_startproc
	pushq	%rbp
	.seh_pushreg	%rbp
	.cfi_def_cfa_offset 16
	.cfi_offset 6, -16
	movq	%rsp, %rbp
	.seh_setframe	%rbp, 0
	.cfi_def_cfa_register 6
	subq	$32, %rsp
	.seh_stackalloc	32
	.seh_endprologue
	movq	%rcx, 16(%rbp)
	.loc 16 142 30
	movq	16(%rbp), %rax
	movq	%rax, %rcx
	call	_ZSt9addressofIcEPT_RS0_
	.loc 16 142 37
	addq	$32, %rsp
	popq	%rbp
	.cfi_restore 6
	.cfi_def_cfa 7, 8
	ret
	.cfi_endproc
.LFE2911:
	.seh_endproc
	.section .rdata,"dr"
.LC8:
	.ascii "basic_string::_M_create\0"
	.section	.text$_ZNSt7__cxx1112basic_stringIcSt11char_traitsIcESaIcEE9_M_createERyy,"x"
	.linkonce discard
	.align 2
	.globl	_ZNSt7__cxx1112basic_stringIcSt11char_traitsIcESaIcEE9_M_createERyy
	.def	_ZNSt7__cxx1112basic_stringIcSt11char_traitsIcESaIcEE9_M_createERyy;	.scl	2;	.type	32;	.endef
	.seh_proc	_ZNSt7__cxx1112basic_stringIcSt11char_traitsIcESaIcEE9_M_createERyy
_ZNSt7__cxx1112basic_stringIcSt11char_traitsIcESaIcEE9_M_createERyy:
.LFB2915:
	.loc 13 134 5
	.cfi_startproc
	pushq	%rbp
	.seh_pushreg	%rbp
	.cfi_def_cfa_offset 16
	.cfi_offset 6, -16
	pushq	%rbx
	.seh_pushreg	%rbx
	.cfi_def_cfa_offset 24
	.cfi_offset 3, -24
	subq	$72, %rsp
	.seh_stackalloc	72
	.cfi_def_cfa_offset 96
	leaq	64(%rsp), %rbp
	.seh_setframe	%rbp, 64
	.cfi_def_cfa 6, 32
	.seh_endprologue
	movq	%rcx, 32(%rbp)
	movq	%rdx, 40(%rbp)
	movq	%r8, 48(%rbp)
	.loc 13 139 22
	movq	40(%rbp), %rax
	movq	(%rax), %rbx
	.loc 13 139 32
	movq	32(%rbp), %rax
	movq	%rax, %rcx
	call	_ZNKSt7__cxx1112basic_stringIcSt11char_traitsIcESaIcEE8max_sizeEv
	.loc 13 139 22 discriminator 1
	cmpq	%rbx, %rax
	setb	%al
	.loc 13 139 7 discriminator 1
	testb	%al, %al
	je	.L164
	.loc 13 140 27
	leaq	.LC8(%rip), %rax
	movq	%rax, %rcx
	call	_ZSt20__throw_length_errorPKc
.L164:
	.loc 13 145 22
	movq	40(%rbp), %rax
	movq	(%rax), %rax
	.loc 13 145 7
	cmpq	%rax, 48(%rbp)
	jnb	.L165
	.loc 13 145 53 discriminator 1
	movq	40(%rbp), %rax
	movq	(%rax), %rdx
	.loc 13 145 57 discriminator 1
	movq	48(%rbp), %rax
	addq	%rax, %rax
	.loc 13 145 39 discriminator 1
	cmpq	%rax, %rdx
	jnb	.L165
	.loc 13 147 19
	movq	48(%rbp), %rax
	leaq	(%rax,%rax), %rdx
	.loc 13 147 15
	movq	40(%rbp), %rax
	movq	%rdx, (%rax)
	.loc 13 149 19
	movq	40(%rbp), %rax
	movq	(%rax), %rbx
	.loc 13 149 29
	movq	32(%rbp), %rax
	movq	%rax, %rcx
	call	_ZNKSt7__cxx1112basic_stringIcSt11char_traitsIcESaIcEE8max_sizeEv
	.loc 13 149 19 discriminator 1
	cmpq	%rbx, %rax
	setb	%al
	.loc 13 149 4 discriminator 1
	testb	%al, %al
	je	.L165
	.loc 13 150 27
	movq	32(%rbp), %rax
	movq	%rax, %rcx
	call	_ZNKSt7__cxx1112basic_stringIcSt11char_traitsIcESaIcEE8max_sizeEv
	.loc 13 150 17 discriminator 1
	movq	40(%rbp), %rdx
	movq	%rax, (%rdx)
.L165:
	.loc 13 155 37
	movq	40(%rbp), %rax
	movq	(%rax), %rax
	leaq	1(%rax), %rbx
	.loc 13 155 54
	movq	32(%rbp), %rax
	movq	%rax, %rcx
	call	_ZNSt7__cxx1112basic_stringIcSt11char_traitsIcESaIcEE16_M_get_allocatorEv
	movq	%rax, -8(%rbp)
	movq	%rbx, -16(%rbp)
	movq	-8(%rbp), %rax
	movq	%rax, -24(%rbp)
	movq	-16(%rbp), %rax
	movq	%rax, -32(%rbp)
.LBB314:
.LBB315:
.LBB316:
.LBB317:
	.loc 8 191 34
	call	_ZSt23__is_constant_evaluatedv
	.loc 8 191 2 discriminator 1
	testb	%al, %al
	je	.L166
	.loc 8 193 32
	movq	-32(%rbp), %rax
	movq	%rax, -32(%rbp)
	movl	$0, %eax
	andl	$1, %eax
	.loc 8 193 6
	testb	%al, %al
	je	.L167
	.loc 8 194 41
	call	_ZSt28__throw_bad_array_new_lengthv
.L167:
	.loc 8 195 45
	movq	-32(%rbp), %rax
	movq	%rax, %rcx
	call	_Znwy
	.loc 8 195 50
	jmp	.L168
.L166:
	.loc 8 198 40
	movq	-32(%rbp), %rdx
	movq	-24(%rbp), %rax
	movl	$0, %r8d
	movq	%rax, %rcx
	call	_ZNSt15__new_allocatorIcE8allocateEyPKv
	.loc 8 198 47
	nop
.L168:
.LBE317:
.LBE316:
	.loc 10 482 32
	nop
.LBE315:
.LBE314:
	.loc 13 156 5
	addq	$72, %rsp
	popq	%rbx
	.cfi_restore 3
	popq	%rbp
	.cfi_restore 6
	.cfi_def_cfa 7, -56
	ret
	.cfi_endproc
.LFE2915:
	.seh_endproc
	.section	.text$_ZNSt7__cxx1112basic_stringIcSt11char_traitsIcESaIcEE10_M_destroyEy,"x"
	.linkonce discard
	.align 2
	.globl	_ZNSt7__cxx1112basic_stringIcSt11char_traitsIcESaIcEE10_M_destroyEy
	.def	_ZNSt7__cxx1112basic_stringIcSt11char_traitsIcESaIcEE10_M_destroyEy;	.scl	2;	.type	32;	.endef
	.seh_proc	_ZNSt7__cxx1112basic_stringIcSt11char_traitsIcESaIcEE10_M_destroyEy
_ZNSt7__cxx1112basic_stringIcSt11char_traitsIcESaIcEE10_M_destroyEy:
.LFB2917:
	.loc 5 299 7
	.cfi_startproc
	pushq	%rbp
	.seh_pushreg	%rbp
	.cfi_def_cfa_offset 16
	.cfi_offset 6, -16
	pushq	%rsi
	.seh_pushreg	%rsi
	.cfi_def_cfa_offset 24
	.cfi_offset 4, -24
	pushq	%rbx
	.seh_pushreg	%rbx
	.cfi_def_cfa_offset 32
	.cfi_offset 3, -32
	subq	$80, %rsp
	.seh_stackalloc	80
	.cfi_def_cfa_offset 112
	leaq	80(%rsp), %rbp
	.seh_setframe	%rbp, 80
	.cfi_def_cfa 6, 32
	.seh_endprologue
	movq	%rcx, 32(%rbp)
	movq	%rdx, 40(%rbp)
	.loc 5 300 34
	movq	40(%rbp), %rax
	leaq	1(%rax), %rsi
	movq	32(%rbp), %rax
	movq	%rax, %rcx
	call	_ZNKSt7__cxx1112basic_stringIcSt11char_traitsIcESaIcEE7_M_dataEv
	movq	%rax, %rbx
	.loc 5 300 51 discriminator 1
	movq	32(%rbp), %rax
	movq	%rax, %rcx
	call	_ZNSt7__cxx1112basic_stringIcSt11char_traitsIcESaIcEE16_M_get_allocatorEv
	movq	%rax, -8(%rbp)
	movq	%rbx, -16(%rbp)
	movq	%rsi, -24(%rbp)
	movq	-8(%rbp), %rax
	movq	%rax, -32(%rbp)
	movq	-16(%rbp), %rax
	movq	%rax, -40(%rbp)
	movq	-24(%rbp), %rax
	movq	%rax, -48(%rbp)
.LBB318:
.LBB319:
.LBB320:
.LBB321:
	.loc 8 205 34
	call	_ZSt23__is_constant_evaluatedv
	.loc 8 205 2 discriminator 1
	testb	%al, %al
	je	.L172
	.loc 8 207 23
	movq	-40(%rbp), %rax
	movq	%rax, %rcx
	call	_ZdlPv
	.loc 8 208 6
	jmp	.L173
.L172:
	.loc 8 210 35
	movq	-48(%rbp), %rcx
	movq	-40(%rbp), %rdx
	movq	-32(%rbp), %rax
	movq	%rcx, %r8
	movq	%rax, %rcx
	call	_ZNSt15__new_allocatorIcE10deallocateEPcy
.L173:
.LBE321:
.LBE320:
	.loc 10 516 35
	nop
.LBE319:
.LBE318:
	.loc 5 300 79
	nop
	addq	$80, %rsp
	popq	%rbx
	.cfi_restore 3
	popq	%rsi
	.cfi_restore 4
	popq	%rbp
	.cfi_restore 6
	.cfi_def_cfa 7, -56
	ret
	.cfi_endproc
.LFE2917:
	.seh_endproc
	.section	.text$_ZNKSt7__cxx1112basic_stringIcSt11char_traitsIcESaIcEE13_M_local_dataEv,"x"
	.linkonce discard
	.align 2
	.globl	_ZNKSt7__cxx1112basic_stringIcSt11char_traitsIcESaIcEE13_M_local_dataEv
	.def	_ZNKSt7__cxx1112basic_stringIcSt11char_traitsIcESaIcEE13_M_local_dataEv;	.scl	2;	.type	32;	.endef
	.seh_proc	_ZNKSt7__cxx1112basic_stringIcSt11char_traitsIcESaIcEE13_M_local_dataEv
_ZNKSt7__cxx1112basic_stringIcSt11char_traitsIcESaIcEE13_M_local_dataEv:
.LFB2918:
	.loc 5 249 7
	.cfi_startproc
	pushq	%rbp
	.seh_pushreg	%rbp
	.cfi_def_cfa_offset 16
	.cfi_offset 6, -16
	movq	%rsp, %rbp
	.seh_setframe	%rbp, 0
	.cfi_def_cfa_register 6
	subq	$32, %rsp
	.seh_stackalloc	32
	.seh_endprologue
	movq	%rcx, 16(%rbp)
	.loc 5 252 57
	movq	16(%rbp), %rax
	addq	$16, %rax
	.loc 5 252 55
	movq	%rax, %rcx
	call	_ZNSt19__ptr_traits_ptr_toIPKcS0_Lb0EE10pointer_toERS0_
	.loc 5 256 7
	addq	$32, %rsp
	popq	%rbp
	.cfi_restore 6
	.cfi_def_cfa 7, 8
	ret
	.cfi_endproc
.LFE2918:
	.seh_endproc
	.section	.text$_ZNSt7__cxx1112basic_stringIcSt11char_traitsIcESaIcEE13_S_copy_charsEPcPKcS7_,"x"
	.linkonce discard
	.globl	_ZNSt7__cxx1112basic_stringIcSt11char_traitsIcESaIcEE13_S_copy_charsEPcPKcS7_
	.def	_ZNSt7__cxx1112basic_stringIcSt11char_traitsIcESaIcEE13_S_copy_charsEPcPKcS7_;	.scl	2;	.type	32;	.endef
	.seh_proc	_ZNSt7__cxx1112basic_stringIcSt11char_traitsIcESaIcEE13_S_copy_charsEPcPKcS7_
_ZNSt7__cxx1112basic_stringIcSt11char_traitsIcESaIcEE13_S_copy_charsEPcPKcS7_:
.LFB2931:
	.loc 5 483 7
	.cfi_startproc
	pushq	%rbp
	.seh_pushreg	%rbp
	.cfi_def_cfa_offset 16
	.cfi_offset 6, -16
	movq	%rsp, %rbp
	.seh_setframe	%rbp, 0
	.cfi_def_cfa_register 6
	subq	$32, %rsp
	.seh_stackalloc	32
	.seh_endprologue
	movq	%rcx, 16(%rbp)
	movq	%rdx, 24(%rbp)
	movq	%r8, 32(%rbp)
	.loc 5 485 33
	movq	32(%rbp), %rax
	subq	24(%rbp), %rax
	.loc 5 485 16
	movq	%rax, %rcx
	movq	24(%rbp), %rdx
	movq	16(%rbp), %rax
	movq	%rcx, %r8
	movq	%rax, %rcx
	call	_ZNSt7__cxx1112basic_stringIcSt11char_traitsIcESaIcEE7_S_copyEPcPKcy
	.loc 5 485 42
	nop
	addq	$32, %rsp
	popq	%rbp
	.cfi_restore 6
	.cfi_def_cfa 7, 8
	ret
	.cfi_endproc
.LFE2931:
	.seh_handler	__gxx_personality_seh0, @unwind, @except
	.seh_handlerdata
.LLSDA2931:
	.byte	0xff
	.byte	0xff
	.byte	0x1
	.uleb128 .LLSDACSE2931-.LLSDACSB2931
.LLSDACSB2931:
.LLSDACSE2931:
	.section	.text$_ZNSt7__cxx1112basic_stringIcSt11char_traitsIcESaIcEE13_S_copy_charsEPcPKcS7_,"x"
	.linkonce discard
	.seh_endproc
	.section	.text$_ZNSt7__cxx1112basic_stringIcSt11char_traitsIcESaIcEE9_M_assignERKS4_,"x"
	.linkonce discard
	.align 2
	.globl	_ZNSt7__cxx1112basic_stringIcSt11char_traitsIcESaIcEE9_M_assignERKS4_
	.def	_ZNSt7__cxx1112basic_stringIcSt11char_traitsIcESaIcEE9_M_assignERKS4_;	.scl	2;	.type	32;	.endef
	.seh_proc	_ZNSt7__cxx1112basic_stringIcSt11char_traitsIcESaIcEE9_M_assignERKS4_
_ZNSt7__cxx1112basic_stringIcSt11char_traitsIcESaIcEE9_M_assignERKS4_:
.LFB2994:
	.loc 13 273 5
	.cfi_startproc
	pushq	%rbp
	.seh_pushreg	%rbp
	.cfi_def_cfa_offset 16
	.cfi_offset 6, -16
	pushq	%rbx
	.seh_pushreg	%rbx
	.cfi_def_cfa_offset 24
	.cfi_offset 3, -24
	subq	$72, %rsp
	.seh_stackalloc	72
	.cfi_def_cfa_offset 96
	leaq	64(%rsp), %rbp
	.seh_setframe	%rbp, 64
	.cfi_def_cfa 6, 32
	.seh_endprologue
	movq	%rcx, 32(%rbp)
	movq	%rdx, 40(%rbp)
.LBB322:
	.loc 13 276 35
	movq	40(%rbp), %rax
	movq	%rax, %rcx
	call	_ZSt11__addressofIKNSt7__cxx1112basic_stringIcSt11char_traitsIcESaIcEEEEPT_RS7_
	.loc 13 276 16 discriminator 1
	cmpq	%rax, 32(%rbp)
	setne	%al
	.loc 13 276 7 discriminator 1
	testb	%al, %al
	je	.L181
.LBB323:
	.loc 13 278 42
	movq	40(%rbp), %rax
	movq	%rax, %rcx
	call	_ZNKSt7__cxx1112basic_stringIcSt11char_traitsIcESaIcEE6lengthEv
	movq	%rax, -8(%rbp)
	.loc 13 279 41
	movq	32(%rbp), %rax
	movq	%rax, %rcx
	call	_ZNKSt7__cxx1112basic_stringIcSt11char_traitsIcESaIcEE8capacityEv
	movq	%rax, -16(%rbp)
.LBB324:
	.loc 13 281 4
	movq	-8(%rbp), %rax
	cmpq	%rax, -16(%rbp)
	jnb	.L179
.LBB325:
	.loc 13 283 18
	movq	-8(%rbp), %rax
	movq	%rax, -32(%rbp)
	.loc 13 284 33
	movq	-16(%rbp), %rcx
	leaq	-32(%rbp), %rdx
	movq	32(%rbp), %rax
	movq	%rcx, %r8
	movq	%rax, %rcx
	call	_ZNSt7__cxx1112basic_stringIcSt11char_traitsIcESaIcEE9_M_createERyy
	.loc 13 284 33 is_stmt 0 discriminator 1
	movq	%rax, -24(%rbp)
	.loc 13 285 18 is_stmt 1
	movq	32(%rbp), %rax
	movq	%rax, %rcx
	call	_ZNSt7__cxx1112basic_stringIcSt11char_traitsIcESaIcEE10_M_disposeEv
	.loc 13 286 15
	movq	-24(%rbp), %rdx
	movq	32(%rbp), %rax
	movq	%rax, %rcx
	call	_ZNSt7__cxx1112basic_stringIcSt11char_traitsIcESaIcEE7_M_dataEPc
	.loc 13 287 19
	movq	-32(%rbp), %rdx
	movq	32(%rbp), %rax
	movq	%rax, %rcx
	call	_ZNSt7__cxx1112basic_stringIcSt11char_traitsIcESaIcEE11_M_capacityEy
.L179:
.LBE325:
.LBE324:
	.loc 13 290 4
	cmpq	$0, -8(%rbp)
	je	.L180
	.loc 13 291 44
	movq	40(%rbp), %rax
	movq	%rax, %rcx
	call	_ZNKSt7__cxx1112basic_stringIcSt11char_traitsIcESaIcEE7_M_dataEv
	movq	%rax, %rbx
	.loc 13 291 19 discriminator 1
	movq	32(%rbp), %rax
	movq	%rax, %rcx
	call	_ZNKSt7__cxx1112basic_stringIcSt11char_traitsIcESaIcEE7_M_dataEv
	.loc 13 291 19 is_stmt 0 discriminator 2
	movq	-8(%rbp), %rdx
	movq	%rdx, %r8
	movq	%rbx, %rdx
	movq	%rax, %rcx
	call	_ZNSt7__cxx1112basic_stringIcSt11char_traitsIcESaIcEE7_S_copyEPcPKcy
.L180:
	.loc 13 293 17 is_stmt 1
	movq	-8(%rbp), %rdx
	movq	32(%rbp), %rax
	movq	%rax, %rcx
	call	_ZNSt7__cxx1112basic_stringIcSt11char_traitsIcESaIcEE13_M_set_lengthEy
.L181:
.LBE323:
.LBE322:
	.loc 13 295 5
	nop
	addq	$72, %rsp
	popq	%rbx
	.cfi_restore 3
	popq	%rbp
	.cfi_restore 6
	.cfi_def_cfa 7, -56
	ret
	.cfi_endproc
.LFE2994:
	.seh_endproc
	.section	.text$_ZNSt7__cxx1112basic_stringIcSt11char_traitsIcESaIcEE13_S_copy_charsEPcS5_S5_,"x"
	.linkonce discard
	.globl	_ZNSt7__cxx1112basic_stringIcSt11char_traitsIcESaIcEE13_S_copy_charsEPcS5_S5_
	.def	_ZNSt7__cxx1112basic_stringIcSt11char_traitsIcESaIcEE13_S_copy_charsEPcS5_S5_;	.scl	2;	.type	32;	.endef
	.seh_proc	_ZNSt7__cxx1112basic_stringIcSt11char_traitsIcESaIcEE13_S_copy_charsEPcS5_S5_
_ZNSt7__cxx1112basic_stringIcSt11char_traitsIcESaIcEE13_S_copy_charsEPcS5_S5_:
.LFB2999:
	.loc 5 478 7
	.cfi_startproc
	pushq	%rbp
	.seh_pushreg	%rbp
	.cfi_def_cfa_offset 16
	.cfi_offset 6, -16
	movq	%rsp, %rbp
	.seh_setframe	%rbp, 0
	.cfi_def_cfa_register 6
	subq	$32, %rsp
	.seh_stackalloc	32
	.seh_endprologue
	movq	%rcx, 16(%rbp)
	movq	%rdx, 24(%rbp)
	movq	%r8, 32(%rbp)
	.loc 5 479 33
	movq	32(%rbp), %rax
	subq	24(%rbp), %rax
	.loc 5 479 16
	movq	%rax, %rcx
	movq	24(%rbp), %rdx
	movq	16(%rbp), %rax
	movq	%rcx, %r8
	movq	%rax, %rcx
	call	_ZNSt7__cxx1112basic_stringIcSt11char_traitsIcESaIcEE7_S_copyEPcPKcy
	.loc 5 479 42
	nop
	addq	$32, %rsp
	popq	%rbp
	.cfi_restore 6
	.cfi_def_cfa 7, 8
	ret
	.cfi_endproc
.LFE2999:
	.seh_handler	__gxx_personality_seh0, @unwind, @except
	.seh_handlerdata
.LLSDA2999:
	.byte	0xff
	.byte	0xff
	.byte	0x1
	.uleb128 .LLSDACSE2999-.LLSDACSB2999
.LLSDACSB2999:
.LLSDACSE2999:
	.section	.text$_ZNSt7__cxx1112basic_stringIcSt11char_traitsIcESaIcEE13_S_copy_charsEPcS5_S5_,"x"
	.linkonce discard
	.seh_endproc
	.section	.text$_ZSt9addressofIcEPT_RS0_,"x"
	.linkonce discard
	.globl	_ZSt9addressofIcEPT_RS0_
	.def	_ZSt9addressofIcEPT_RS0_;	.scl	2;	.type	32;	.endef
	.seh_proc	_ZSt9addressofIcEPT_RS0_
_ZSt9addressofIcEPT_RS0_:
.LFB3000:
	.loc 12 145 5
	.cfi_startproc
	pushq	%rbp
	.seh_pushreg	%rbp
	.cfi_def_cfa_offset 16
	.cfi_offset 6, -16
	movq	%rsp, %rbp
	.seh_setframe	%rbp, 0
	.cfi_def_cfa_register 6
	subq	$32, %rsp
	.seh_stackalloc	32
	.seh_endprologue
	movq	%rcx, 16(%rbp)
	.loc 12 146 30
	movq	16(%rbp), %rax
	movq	%rax, %rcx
	call	_ZSt11__addressofIcEPT_RS0_
	.loc 12 146 37
	addq	$32, %rsp
	popq	%rbp
	.cfi_restore 6
	.cfi_def_cfa 7, 8
	ret
	.cfi_endproc
.LFE3000:
	.seh_endproc
	.section	.text$_ZNKSt7__cxx1112basic_stringIcSt11char_traitsIcESaIcEE8max_sizeEv,"x"
	.linkonce discard
	.align 2
	.globl	_ZNKSt7__cxx1112basic_stringIcSt11char_traitsIcESaIcEE8max_sizeEv
	.def	_ZNKSt7__cxx1112basic_stringIcSt11char_traitsIcESaIcEE8max_sizeEv;	.scl	2;	.type	32;	.endef
	.seh_proc	_ZNKSt7__cxx1112basic_stringIcSt11char_traitsIcESaIcEE8max_sizeEv
_ZNKSt7__cxx1112basic_stringIcSt11char_traitsIcESaIcEE8max_sizeEv:
.LFB3004:
	.loc 5 1083 7
	.cfi_startproc
	pushq	%rbp
	.seh_pushreg	%rbp
	.cfi_def_cfa_offset 16
	.cfi_offset 6, -16
	movq	%rsp, %rbp
	.seh_setframe	%rbp, 0
	.cfi_def_cfa_register 6
	subq	$48, %rsp
	.seh_stackalloc	48
	.seh_endprologue
	movq	%rcx, 16(%rbp)
	.loc 5 1084 57
	movq	16(%rbp), %rax
	movq	%rax, %rcx
	call	_ZNKSt7__cxx1112basic_stringIcSt11char_traitsIcESaIcEE16_M_get_allocatorEv
	movq	%rax, -8(%rbp)
.LBB326:
.LBB327:
	.loc 10 575 39
	movq	$-1, %rax
.LBE327:
.LBE326:
	.loc 5 1084 61 discriminator 2
	subq	$1, %rax
	.loc 5 1084 68 discriminator 2
	shrq	%rax
	.loc 5 1084 71
	addq	$48, %rsp
	popq	%rbp
	.cfi_restore 6
	.cfi_def_cfa 7, 8
	ret
	.cfi_endproc
.LFE3004:
	.seh_endproc
	.section	.text$_ZNSt19__ptr_traits_ptr_toIPKcS0_Lb0EE10pointer_toERS0_,"x"
	.linkonce discard
	.globl	_ZNSt19__ptr_traits_ptr_toIPKcS0_Lb0EE10pointer_toERS0_
	.def	_ZNSt19__ptr_traits_ptr_toIPKcS0_Lb0EE10pointer_toERS0_;	.scl	2;	.type	32;	.endef
	.seh_proc	_ZNSt19__ptr_traits_ptr_toIPKcS0_Lb0EE10pointer_toERS0_
_ZNSt19__ptr_traits_ptr_toIPKcS0_Lb0EE10pointer_toERS0_:
.LFB3006:
	.loc 16 141 7
	.cfi_startproc
	pushq	%rbp
	.seh_pushreg	%rbp
	.cfi_def_cfa_offset 16
	.cfi_offset 6, -16
	movq	%rsp, %rbp
	.seh_setframe	%rbp, 0
	.cfi_def_cfa_register 6
	subq	$32, %rsp
	.seh_stackalloc	32
	.seh_endprologue
	movq	%rcx, 16(%rbp)
	.loc 16 142 30
	movq	16(%rbp), %rax
	movq	%rax, %rcx
	call	_ZSt9addressofIKcEPT_RS1_
	.loc 16 142 37
	addq	$32, %rsp
	popq	%rbp
	.cfi_restore 6
	.cfi_def_cfa 7, 8
	ret
	.cfi_endproc
.LFE3006:
	.seh_endproc
	.section	.text$_ZNSt7__cxx1112basic_stringIcSt11char_traitsIcESaIcEE7_S_copyEPcPKcy,"x"
	.linkonce discard
	.globl	_ZNSt7__cxx1112basic_stringIcSt11char_traitsIcESaIcEE7_S_copyEPcPKcy
	.def	_ZNSt7__cxx1112basic_stringIcSt11char_traitsIcESaIcEE7_S_copyEPcPKcy;	.scl	2;	.type	32;	.endef
	.seh_proc	_ZNSt7__cxx1112basic_stringIcSt11char_traitsIcESaIcEE7_S_copyEPcPKcy
_ZNSt7__cxx1112basic_stringIcSt11char_traitsIcESaIcEE7_S_copyEPcPKcy:
.LFB3014:
	.loc 5 426 7
	.cfi_startproc
	pushq	%rbp
	.seh_pushreg	%rbp
	.cfi_def_cfa_offset 16
	.cfi_offset 6, -16
	movq	%rsp, %rbp
	.seh_setframe	%rbp, 0
	.cfi_def_cfa_register 6
	subq	$32, %rsp
	.seh_stackalloc	32
	.seh_endprologue
	movq	%rcx, 16(%rbp)
	movq	%rdx, 24(%rbp)
	movq	%r8, 32(%rbp)
	.loc 5 428 2
	cmpq	$1, 32(%rbp)
	jne	.L191
	.loc 5 429 23
	movq	24(%rbp), %rdx
	movq	16(%rbp), %rax
	movq	%rax, %rcx
	call	_ZNSt11char_traitsIcE6assignERcRKc
	.loc 5 432 7
	jmp	.L193
.L191:
	.loc 5 431 21
	movq	32(%rbp), %rcx
	movq	24(%rbp), %rdx
	movq	16(%rbp), %rax
	movq	%rcx, %r8
	movq	%rax, %rcx
	call	_ZNSt11char_traitsIcE4copyEPcPKcy
.L193:
	.loc 5 432 7
	nop
	addq	$32, %rsp
	popq	%rbp
	.cfi_restore 6
	.cfi_def_cfa 7, 8
	ret
	.cfi_endproc
.LFE3014:
	.seh_endproc
	.section	.text$_ZSt11__addressofIKNSt7__cxx1112basic_stringIcSt11char_traitsIcESaIcEEEEPT_RS7_,"x"
	.linkonce discard
	.globl	_ZSt11__addressofIKNSt7__cxx1112basic_stringIcSt11char_traitsIcESaIcEEEEPT_RS7_
	.def	_ZSt11__addressofIKNSt7__cxx1112basic_stringIcSt11char_traitsIcESaIcEEEEPT_RS7_;	.scl	2;	.type	32;	.endef
	.seh_proc	_ZSt11__addressofIKNSt7__cxx1112basic_stringIcSt11char_traitsIcESaIcEEEEPT_RS7_
_ZSt11__addressofIKNSt7__cxx1112basic_stringIcSt11char_traitsIcESaIcEEEEPT_RS7_:
.LFB3070:
	.loc 12 49 5
	.cfi_startproc
	pushq	%rbp
	.seh_pushreg	%rbp
	.cfi_def_cfa_offset 16
	.cfi_offset 6, -16
	movq	%rsp, %rbp
	.seh_setframe	%rbp, 0
	.cfi_def_cfa_register 6
	.seh_endprologue
	movq	%rcx, 16(%rbp)
	.loc 12 50 37
	movq	16(%rbp), %rax
	.loc 12 50 40
	popq	%rbp
	.cfi_restore 6
	.cfi_def_cfa 7, 8
	ret
	.cfi_endproc
.LFE3070:
	.seh_endproc
	.section	.text$_ZSt11__addressofIcEPT_RS0_,"x"
	.linkonce discard
	.globl	_ZSt11__addressofIcEPT_RS0_
	.def	_ZSt11__addressofIcEPT_RS0_;	.scl	2;	.type	32;	.endef
	.seh_proc	_ZSt11__addressofIcEPT_RS0_
_ZSt11__addressofIcEPT_RS0_:
.LFB3072:
	.loc 12 49 5
	.cfi_startproc
	pushq	%rbp
	.seh_pushreg	%rbp
	.cfi_def_cfa_offset 16
	.cfi_offset 6, -16
	movq	%rsp, %rbp
	.seh_setframe	%rbp, 0
	.cfi_def_cfa_register 6
	.seh_endprologue
	movq	%rcx, 16(%rbp)
	.loc 12 50 37
	movq	16(%rbp), %rax
	.loc 12 50 40
	popq	%rbp
	.cfi_restore 6
	.cfi_def_cfa 7, 8
	ret
	.cfi_endproc
.LFE3072:
	.seh_endproc
	.section	.text$_ZSt9addressofIKcEPT_RS1_,"x"
	.linkonce discard
	.globl	_ZSt9addressofIKcEPT_RS1_
	.def	_ZSt9addressofIKcEPT_RS1_;	.scl	2;	.type	32;	.endef
	.seh_proc	_ZSt9addressofIKcEPT_RS1_
_ZSt9addressofIKcEPT_RS1_:
.LFB3075:
	.loc 12 145 5
	.cfi_startproc
	pushq	%rbp
	.seh_pushreg	%rbp
	.cfi_def_cfa_offset 16
	.cfi_offset 6, -16
	movq	%rsp, %rbp
	.seh_setframe	%rbp, 0
	.cfi_def_cfa_register 6
	subq	$32, %rsp
	.seh_stackalloc	32
	.seh_endprologue
	movq	%rcx, 16(%rbp)
	.loc 12 146 30
	movq	16(%rbp), %rax
	movq	%rax, %rcx
	call	_ZSt11__addressofIKcEPT_RS1_
	.loc 12 146 37
	addq	$32, %rsp
	popq	%rbp
	.cfi_restore 6
	.cfi_def_cfa 7, 8
	ret
	.cfi_endproc
.LFE3075:
	.seh_endproc
	.section	.text$_ZNSt15__new_allocatorIcE8allocateEyPKv,"x"
	.linkonce discard
	.align 2
	.globl	_ZNSt15__new_allocatorIcE8allocateEyPKv
	.def	_ZNSt15__new_allocatorIcE8allocateEyPKv;	.scl	2;	.type	32;	.endef
	.seh_proc	_ZNSt15__new_allocatorIcE8allocateEyPKv
_ZNSt15__new_allocatorIcE8allocateEyPKv:
.LFB3104:
	.loc 7 122 7
	.cfi_startproc
	pushq	%rbp
	.seh_pushreg	%rbp
	.cfi_def_cfa_offset 16
	.cfi_offset 6, -16
	movq	%rsp, %rbp
	.seh_setframe	%rbp, 0
	.cfi_def_cfa_register 6
	subq	$48, %rsp
	.seh_stackalloc	48
	.seh_endprologue
	movq	%rcx, 16(%rbp)
	movq	%rdx, 24(%rbp)
	movq	%r8, 32(%rbp)
	movq	16(%rbp), %rax
	movq	%rax, -8(%rbp)
.LBB328:
.LBB329:
	.loc 7 229 55
	movabsq	$9223372036854775807, %rax
.LBE329:
.LBE328:
	.loc 7 130 27 discriminator 1
	cmpq	24(%rbp), %rax
	setb	%al
	.loc 7 130 22 discriminator 1
	movzbl	%al, %eax
	.loc 7 130 22 is_stmt 0 discriminator 2
	testl	%eax, %eax
	setne	%al
	.loc 7 130 2 is_stmt 1 discriminator 2
	testb	%al, %al
	je	.L202
	.loc 7 136 28
	call	_ZSt17__throw_bad_allocv
.L202:
	.loc 7 147 41
	movq	24(%rbp), %rax
	movq	%rax, %rcx
	call	_Znwy
	.loc 7 147 60
	nop
	.loc 7 148 7
	addq	$48, %rsp
	popq	%rbp
	.cfi_restore 6
	.cfi_def_cfa 7, 8
	ret
	.cfi_endproc
.LFE3104:
	.seh_endproc
	.section	.text$_ZNSt15__new_allocatorIcE10deallocateEPcy,"x"
	.linkonce discard
	.align 2
	.globl	_ZNSt15__new_allocatorIcE10deallocateEPcy
	.def	_ZNSt15__new_allocatorIcE10deallocateEPcy;	.scl	2;	.type	32;	.endef
	.seh_proc	_ZNSt15__new_allocatorIcE10deallocateEPcy
_ZNSt15__new_allocatorIcE10deallocateEPcy:
.LFB3105:
	.loc 7 152 7
	.cfi_startproc
	pushq	%rbp
	.seh_pushreg	%rbp
	.cfi_def_cfa_offset 16
	.cfi_offset 6, -16
	movq	%rsp, %rbp
	.seh_setframe	%rbp, 0
	.cfi_def_cfa_register 6
	subq	$32, %rsp
	.seh_stackalloc	32
	.seh_endprologue
	movq	%rcx, 16(%rbp)
	movq	%rdx, 24(%rbp)
	movq	%r8, 32(%rbp)
	.loc 7 168 19
	movq	32(%rbp), %rdx
	movq	24(%rbp), %rax
	movq	%rax, %rcx
	call	_ZdlPvy
	nop
	.loc 7 169 7
	addq	$32, %rsp
	popq	%rbp
	.cfi_restore 6
	.cfi_def_cfa 7, 8
	ret
	.cfi_endproc
.LFE3105:
	.seh_endproc
	.section	.text$_ZSt11__addressofIKcEPT_RS1_,"x"
	.linkonce discard
	.globl	_ZSt11__addressofIKcEPT_RS1_
	.def	_ZSt11__addressofIKcEPT_RS1_;	.scl	2;	.type	32;	.endef
	.seh_proc	_ZSt11__addressofIKcEPT_RS1_
_ZSt11__addressofIKcEPT_RS1_:
.LFB3106:
	.loc 12 49 5
	.cfi_startproc
	pushq	%rbp
	.seh_pushreg	%rbp
	.cfi_def_cfa_offset 16
	.cfi_offset 6, -16
	movq	%rsp, %rbp
	.seh_setframe	%rbp, 0
	.cfi_def_cfa_register 6
	.seh_endprologue
	movq	%rcx, 16(%rbp)
	.loc 12 50 37
	movq	16(%rbp), %rax
	.loc 12 50 40
	popq	%rbp
	.cfi_restore 6
	.cfi_def_cfa 7, 8
	ret
	.cfi_endproc
.LFE3106:
	.seh_endproc
	.section .rdata,"dr"
_ZNSt8__detail30__integer_to_chars_is_unsignedIjEE:
	.byte	1
_ZNSt8__detail30__integer_to_chars_is_unsignedImEE:
	.byte	1
_ZNSt8__detail30__integer_to_chars_is_unsignedIyEE:
	.byte	1
	.text
.Letext0:
	.file 17 "D:/Program Files/JetBrains/CLion 2024.2.3/bin/mingw/x86_64-w64-mingw32/include/corecrt.h"
	.file 18 "D:/Program Files/JetBrains/CLion 2024.2.3/bin/mingw/x86_64-w64-mingw32/include/locale.h"
	.file 19 "D:/Program Files/JetBrains/CLion 2024.2.3/bin/mingw/x86_64-w64-mingw32/include/wchar.h"
	.file 20 "D:/Program Files/JetBrains/CLion 2024.2.3/bin/mingw/lib/gcc/x86_64-w64-mingw32/13.1.0/include/c++/cwchar"
	.file 21 "D:/Program Files/JetBrains/CLion 2024.2.3/bin/mingw/lib/gcc/x86_64-w64-mingw32/13.1.0/include/c++/bits/exception_ptr.h"
	.file 22 "D:/Program Files/JetBrains/CLion 2024.2.3/bin/mingw/lib/gcc/x86_64-w64-mingw32/13.1.0/include/c++/concepts"
	.file 23 "D:/Program Files/JetBrains/CLion 2024.2.3/bin/mingw/lib/gcc/x86_64-w64-mingw32/13.1.0/include/c++/bits/iterator_concepts.h"
	.file 24 "D:/Program Files/JetBrains/CLion 2024.2.3/bin/mingw/lib/gcc/x86_64-w64-mingw32/13.1.0/include/c++/compare"
	.file 25 "D:/Program Files/JetBrains/CLion 2024.2.3/bin/mingw/lib/gcc/x86_64-w64-mingw32/13.1.0/include/c++/bits/charconv.h"
	.file 26 "D:/Program Files/JetBrains/CLion 2024.2.3/bin/mingw/lib/gcc/x86_64-w64-mingw32/13.1.0/include/c++/clocale"
	.file 27 "D:/Program Files/JetBrains/CLion 2024.2.3/bin/mingw/lib/gcc/x86_64-w64-mingw32/13.1.0/include/c++/debug/debug.h"
	.file 28 "D:/Program Files/JetBrains/CLion 2024.2.3/bin/mingw/lib/gcc/x86_64-w64-mingw32/13.1.0/include/c++/numbers"
	.file 29 "D:/Program Files/JetBrains/CLion 2024.2.3/bin/mingw/lib/gcc/x86_64-w64-mingw32/13.1.0/include/c++/string_view"
	.file 30 "D:/Program Files/JetBrains/CLion 2024.2.3/bin/mingw/lib/gcc/x86_64-w64-mingw32/13.1.0/include/c++/cstdlib"
	.file 31 "D:/Program Files/JetBrains/CLion 2024.2.3/bin/mingw/lib/gcc/x86_64-w64-mingw32/13.1.0/include/c++/cstdio"
	.file 32 "D:/Program Files/JetBrains/CLion 2024.2.3/bin/mingw/lib/gcc/x86_64-w64-mingw32/13.1.0/include/c++/initializer_list"
	.file 33 "D:/Program Files/JetBrains/CLion 2024.2.3/bin/mingw/lib/gcc/x86_64-w64-mingw32/13.1.0/include/c++/cstddef"
	.file 34 "D:/Program Files/JetBrains/CLion 2024.2.3/bin/mingw/lib/gcc/x86_64-w64-mingw32/13.1.0/include/c++/bits/memory_resource.h"
	.file 35 "D:/Program Files/JetBrains/CLion 2024.2.3/bin/mingw/lib/gcc/x86_64-w64-mingw32/13.1.0/include/c++/bits/stringfwd.h"
	.file 36 "D:/Program Files/JetBrains/CLion 2024.2.3/bin/mingw/lib/gcc/x86_64-w64-mingw32/13.1.0/include/c++/system_error"
	.file 37 "D:/Program Files/JetBrains/CLion 2024.2.3/bin/mingw/lib/gcc/x86_64-w64-mingw32/13.1.0/include/c++/cwctype"
	.file 38 "D:/Program Files/JetBrains/CLion 2024.2.3/bin/mingw/lib/gcc/x86_64-w64-mingw32/13.1.0/include/c++/ostream"
	.file 39 "D:/Program Files/JetBrains/CLion 2024.2.3/bin/mingw/lib/gcc/x86_64-w64-mingw32/13.1.0/include/c++/iosfwd"
	.file 40 "D:/Program Files/JetBrains/CLion 2024.2.3/bin/mingw/lib/gcc/x86_64-w64-mingw32/13.1.0/include/c++/bits/functexcept.h"
	.file 41 "D:/Program Files/JetBrains/CLion 2024.2.3/bin/mingw/x86_64-w64-mingw32/include/swprintf.inl"
	.file 42 "D:/Program Files/JetBrains/CLion 2024.2.3/bin/mingw/lib/gcc/x86_64-w64-mingw32/13.1.0/include/c++/bits/predefined_ops.h"
	.file 43 "D:/Program Files/JetBrains/CLion 2024.2.3/bin/mingw/lib/gcc/x86_64-w64-mingw32/13.1.0/include/c++/bits/stl_iterator.h"
	.file 44 "D:/Program Files/JetBrains/CLion 2024.2.3/bin/mingw/x86_64-w64-mingw32/include/stddef.h"
	.file 45 "D:/Program Files/JetBrains/CLion 2024.2.3/bin/mingw/x86_64-w64-mingw32/include/stdio.h"
	.file 46 "D:/Program Files/JetBrains/CLion 2024.2.3/bin/mingw/x86_64-w64-mingw32/include/stdlib.h"
	.file 47 "D:/Program Files/JetBrains/CLion 2024.2.3/bin/mingw/x86_64-w64-mingw32/include/process.h"
	.file 48 "D:/Program Files/JetBrains/CLion 2024.2.3/bin/mingw/x86_64-w64-mingw32/include/wctype.h"
	.file 49 "D:/Program Files/JetBrains/CLion 2024.2.3/bin/mingw/lib/gcc/x86_64-w64-mingw32/13.1.0/include/c++/bits/ranges_cmp.h"
	.file 50 "D:/Program Files/JetBrains/CLion 2024.2.3/bin/mingw/lib/gcc/x86_64-w64-mingw32/13.1.0/include/c++/iostream"
	.section	.rdata$.refptr._ZSt4endlIcSt11char_traitsIcEERSt13basic_ostreamIT_T0_ES6_, "dr"
	.globl	.refptr._ZSt4endlIcSt11char_traitsIcEERSt13basic_ostreamIT_T0_ES6_
	.linkonce	discard
.refptr._ZSt4endlIcSt11char_traitsIcEERSt13basic_ostreamIT_T0_ES6_:
	.quad	_ZSt4endlIcSt11char_traitsIcEERSt13basic_ostreamIT_T0_ES6_
	.section	.rdata$.refptr._ZSt4cout, "dr"
	.globl	.refptr._ZSt4cout
	.linkonce	discard
.refptr._ZSt4cout:
	.quad	_ZSt4cout
