	.file	"\350\256\277\351\227\256\346\235\203\351\231\220.cpp"
	.text
.Ltext0:
	.cfi_sections	.debug_frame
	.file 0 "D://Workspace//CPP//CppLearning//cmake-build-debug" "D:/Workspace/CPP/CppLearning/class/\350\256\277\351\227\256\346\235\203\351\231\220.cpp"
	.section	.text$_ZSt23__is_constant_evaluatedv,"x"
	.linkonce discard
	.globl	_ZSt23__is_constant_evaluatedv
	.def	_ZSt23__is_constant_evaluatedv;	.scl	2;	.type	32;	.endef
	.seh_proc	_ZSt23__is_constant_evaluatedv
_ZSt23__is_constant_evaluatedv:
.LFB1:
	.file 1 "D:/Program Files/JetBrains/CLion 2024.2.3/bin/mingw/lib/gcc/x86_64-w64-mingw32/13.1.0/include/c++/x86_64-w64-mingw32/bits/c++config.h"
	.loc 1 541 3
	.cfi_startproc
	pushq	%rbp
	.seh_pushreg	%rbp
	.cfi_def_cfa_offset 16
	.cfi_offset 6, -16
	movq	%rsp, %rbp
	.seh_setframe	%rbp, 0
	.cfi_def_cfa_register 6
	.seh_endprologue
	.loc 1 547 44
	movl	$0, %eax
	.loc 1 551 3
	popq	%rbp
	.cfi_restore 6
	.cfi_def_cfa 7, 8
	ret
	.cfi_endproc
.LFE1:
	.seh_endproc
	.section	.text$_ZnwyPv,"x"
	.linkonce discard
	.globl	_ZnwyPv
	.def	_ZnwyPv;	.scl	2;	.type	32;	.endef
	.seh_proc	_ZnwyPv
_ZnwyPv:
.LFB95:
	.file 2 "D:/Program Files/JetBrains/CLion 2024.2.3/bin/mingw/lib/gcc/x86_64-w64-mingw32/13.1.0/include/c++/new"
	.loc 2 175 1
	.cfi_startproc
	pushq	%rbp
	.seh_pushreg	%rbp
	.cfi_def_cfa_offset 16
	.cfi_offset 6, -16
	movq	%rsp, %rbp
	.seh_setframe	%rbp, 0
	.cfi_def_cfa_register 6
	.seh_endprologue
	movq	%rcx, 16(%rbp)
	movq	%rdx, 24(%rbp)
	.loc 2 175 10
	movq	24(%rbp), %rax
	.loc 2 175 15
	popq	%rbp
	.cfi_restore 6
	.cfi_def_cfa 7, 8
	ret
	.cfi_endproc
.LFE95:
	.seh_endproc
	.section	.text$_ZSt21is_constant_evaluatedv,"x"
	.linkonce discard
	.globl	_ZSt21is_constant_evaluatedv
	.def	_ZSt21is_constant_evaluatedv;	.scl	2;	.type	32;	.endef
	.seh_proc	_ZSt21is_constant_evaluatedv
_ZSt21is_constant_evaluatedv:
.LFB113:
	.file 3 "D:/Program Files/JetBrains/CLion 2024.2.3/bin/mingw/lib/gcc/x86_64-w64-mingw32/13.1.0/include/c++/type_traits"
	.loc 3 3645 3
	.cfi_startproc
	pushq	%rbp
	.seh_pushreg	%rbp
	.cfi_def_cfa_offset 16
	.cfi_offset 6, -16
	movq	%rsp, %rbp
	.seh_setframe	%rbp, 0
	.cfi_def_cfa_register 6
	.seh_endprologue
	.loc 3 3649 44
	movl	$0, %eax
	.loc 3 3651 3
	popq	%rbp
	.cfi_restore 6
	.cfi_def_cfa 7, 8
	ret
	.cfi_endproc
.LFE113:
	.seh_endproc
	.section	.text$_ZNSt11char_traitsIcE6assignERcRKc,"x"
	.linkonce discard
	.globl	_ZNSt11char_traitsIcE6assignERcRKc
	.def	_ZNSt11char_traitsIcE6assignERcRKc;	.scl	2;	.type	32;	.endef
	.seh_proc	_ZNSt11char_traitsIcE6assignERcRKc
_ZNSt11char_traitsIcE6assignERcRKc:
.LFB303:
	.file 4 "D:/Program Files/JetBrains/CLion 2024.2.3/bin/mingw/lib/gcc/x86_64-w64-mingw32/13.1.0/include/c++/bits/char_traits.h"
	.loc 4 361 7
	.cfi_startproc
	pushq	%rbp
	.seh_pushreg	%rbp
	.cfi_def_cfa_offset 16
	.cfi_offset 6, -16
	movq	%rsp, %rbp
	.seh_setframe	%rbp, 0
	.cfi_def_cfa_register 6
	subq	$32, %rsp
	.seh_stackalloc	32
	.seh_endprologue
	movq	%rcx, 16(%rbp)
	movq	%rdx, 24(%rbp)
	.loc 4 364 34
	call	_ZSt23__is_constant_evaluatedv
	.loc 4 364 2 discriminator 1
	testb	%al, %al
	je	.L8
	.loc 4 365 21
	movq	24(%rbp), %rdx
	movq	16(%rbp), %rax
	movq	%rax, %rcx
	call	_ZSt12construct_atIcJRKcEEDTgsnwcvPvLi0E_T_pispcl7declvalIT0_EEEEPS3_DpOS4_
	.loc 4 369 7
	jmp	.L10
.L8:
	.loc 4 368 9
	movq	24(%rbp), %rax
	movzbl	(%rax), %edx
	.loc 4 368 7
	movq	16(%rbp), %rax
	movb	%dl, (%rax)
.L10:
	.loc 4 369 7
	nop
	addq	$32, %rsp
	popq	%rbp
	.cfi_restore 6
	.cfi_def_cfa 7, 8
	ret
	.cfi_endproc
.LFE303:
	.seh_endproc
	.section	.text$_ZNSt11char_traitsIcE6lengthEPKc,"x"
	.linkonce discard
	.globl	_ZNSt11char_traitsIcE6lengthEPKc
	.def	_ZNSt11char_traitsIcE6lengthEPKc;	.scl	2;	.type	32;	.endef
	.seh_proc	_ZNSt11char_traitsIcE6lengthEPKc
_ZNSt11char_traitsIcE6lengthEPKc:
.LFB307:
	.loc 4 403 7
	.cfi_startproc
	pushq	%rbp
	.seh_pushreg	%rbp
	.cfi_def_cfa_offset 16
	.cfi_offset 6, -16
	movq	%rsp, %rbp
	.seh_setframe	%rbp, 0
	.cfi_def_cfa_register 6
	subq	$32, %rsp
	.seh_stackalloc	32
	.seh_endprologue
	movq	%rcx, 16(%rbp)
	.loc 4 406 34
	call	_ZSt23__is_constant_evaluatedv
	.loc 4 406 2 discriminator 1
	testb	%al, %al
	je	.L12
	.loc 4 407 52
	movq	16(%rbp), %rax
	movq	%rax, %rcx
	call	_ZN9__gnu_cxx11char_traitsIcE6lengthEPKc
	.loc 4 407 56
	jmp	.L13
.L12:
	.loc 4 409 25
	movq	16(%rbp), %rax
	movq	%rax, %rcx
	call	strlen
	.loc 4 409 29
	nop
.L13:
	.loc 4 410 7
	addq	$32, %rsp
	popq	%rbp
	.cfi_restore 6
	.cfi_def_cfa 7, 8
	ret
	.cfi_endproc
.LFE307:
	.seh_endproc
	.section	.text$_ZNSt11char_traitsIcE4moveEPcPKcy,"x"
	.linkonce discard
	.globl	_ZNSt11char_traitsIcE4moveEPcPKcy
	.def	_ZNSt11char_traitsIcE4moveEPcPKcy;	.scl	2;	.type	32;	.endef
	.seh_proc	_ZNSt11char_traitsIcE4moveEPcPKcy
_ZNSt11char_traitsIcE4moveEPcPKcy:
.LFB309:
	.loc 4 425 7
	.cfi_startproc
	pushq	%rbp
	.seh_pushreg	%rbp
	.cfi_def_cfa_offset 16
	.cfi_offset 6, -16
	movq	%rsp, %rbp
	.seh_setframe	%rbp, 0
	.cfi_def_cfa_register 6
	subq	$32, %rsp
	.seh_stackalloc	32
	.seh_endprologue
	movq	%rcx, 16(%rbp)
	movq	%rdx, 24(%rbp)
	movq	%r8, 32(%rbp)
	.loc 4 427 2
	cmpq	$0, 32(%rbp)
	jne	.L15
	.loc 4 428 11
	movq	16(%rbp), %rax
	jmp	.L16
.L15:
	.loc 4 430 34
	call	_ZSt23__is_constant_evaluatedv
	.loc 4 430 2 discriminator 1
	testb	%al, %al
	je	.L17
	.loc 4 431 50
	movq	32(%rbp), %rcx
	movq	24(%rbp), %rdx
	movq	16(%rbp), %rax
	movq	%rcx, %r8
	movq	%rax, %rcx
	call	_ZN9__gnu_cxx11char_traitsIcE4moveEPcPKcy
	.loc 4 431 66
	jmp	.L16
.L17:
	.loc 4 433 50
	movq	32(%rbp), %rcx
	movq	24(%rbp), %rdx
	movq	16(%rbp), %rax
	movq	%rcx, %r8
	movq	%rax, %rcx
	call	memmove
	.loc 4 433 67
	nop
.L16:
	.loc 4 434 7
	addq	$32, %rsp
	popq	%rbp
	.cfi_restore 6
	.cfi_def_cfa 7, 8
	ret
	.cfi_endproc
.LFE309:
	.seh_endproc
	.section	.text$_ZNSt11char_traitsIcE4copyEPcPKcy,"x"
	.linkonce discard
	.globl	_ZNSt11char_traitsIcE4copyEPcPKcy
	.def	_ZNSt11char_traitsIcE4copyEPcPKcy;	.scl	2;	.type	32;	.endef
	.seh_proc	_ZNSt11char_traitsIcE4copyEPcPKcy
_ZNSt11char_traitsIcE4copyEPcPKcy:
.LFB310:
	.loc 4 437 7
	.cfi_startproc
	pushq	%rbp
	.seh_pushreg	%rbp
	.cfi_def_cfa_offset 16
	.cfi_offset 6, -16
	movq	%rsp, %rbp
	.seh_setframe	%rbp, 0
	.cfi_def_cfa_register 6
	subq	$32, %rsp
	.seh_stackalloc	32
	.seh_endprologue
	movq	%rcx, 16(%rbp)
	movq	%rdx, 24(%rbp)
	movq	%r8, 32(%rbp)
	.loc 4 439 2
	cmpq	$0, 32(%rbp)
	jne	.L19
	.loc 4 440 11
	movq	16(%rbp), %rax
	jmp	.L20
.L19:
	.loc 4 442 34
	call	_ZSt23__is_constant_evaluatedv
	.loc 4 442 2 discriminator 1
	testb	%al, %al
	je	.L21
	.loc 4 443 50
	movq	32(%rbp), %rcx
	movq	24(%rbp), %rdx
	movq	16(%rbp), %rax
	movq	%rcx, %r8
	movq	%rax, %rcx
	call	_ZN9__gnu_cxx11char_traitsIcE4copyEPcPKcy
	.loc 4 443 66
	jmp	.L20
.L21:
	.loc 4 445 49
	movq	16(%rbp), %rdx
	movq	24(%rbp), %rax
	movq	%rdx, %rcx
	movq	%rax, %rdx
	movq	32(%rbp), %rax
	movq	%rax, %r8
	call	memcpy
	.loc 4 445 66
	nop
.L20:
	.loc 4 446 7
	addq	$32, %rsp
	popq	%rbp
	.cfi_restore 6
	.cfi_def_cfa 7, 8
	ret
	.cfi_endproc
.LFE310:
	.seh_endproc
	.section	.text$_ZNKSt7__cxx1112basic_stringIcSt11char_traitsIcESaIcEE4sizeEv,"x"
	.linkonce discard
	.align 2
	.globl	_ZNKSt7__cxx1112basic_stringIcSt11char_traitsIcESaIcEE4sizeEv
	.def	_ZNKSt7__cxx1112basic_stringIcSt11char_traitsIcESaIcEE4sizeEv;	.scl	2;	.type	32;	.endef
	.seh_proc	_ZNKSt7__cxx1112basic_stringIcSt11char_traitsIcESaIcEE4sizeEv
_ZNKSt7__cxx1112basic_stringIcSt11char_traitsIcESaIcEE4sizeEv:
.LFB1573:
	.file 5 "D:/Program Files/JetBrains/CLion 2024.2.3/bin/mingw/lib/gcc/x86_64-w64-mingw32/13.1.0/include/c++/bits/basic_string.h"
	.loc 5 1070 7
	.cfi_startproc
	pushq	%rbp
	.seh_pushreg	%rbp
	.cfi_def_cfa_offset 16
	.cfi_offset 6, -16
	movq	%rsp, %rbp
	.seh_setframe	%rbp, 0
	.cfi_def_cfa_register 6
	.seh_endprologue
	movq	%rcx, 16(%rbp)
	.loc 5 1071 16
	movq	16(%rbp), %rax
	movq	8(%rax), %rax
	.loc 5 1071 34
	popq	%rbp
	.cfi_restore 6
	.cfi_def_cfa 7, 8
	ret
	.cfi_endproc
.LFE1573:
	.seh_endproc
	.section .rdata,"dr"
.LC0:
	.ascii "\345\274\240\344\270\211\0"
.LC1:
	.ascii "\346\213\226\346\213\211\346\234\272\0"
	.section	.text$_ZN6Person4funcEv,"x"
	.linkonce discard
	.align 2
	.globl	_ZN6Person4funcEv
	.def	_ZN6Person4funcEv;	.scl	2;	.type	32;	.endef
	.seh_proc	_ZN6Person4funcEv
_ZN6Person4funcEv:
.LFB2443:
	.file 6 "D:/Workspace/CPP/CppLearning/class/\350\256\277\351\227\256\346\235\203\351\231\220.cpp"
	.loc 6 32 10
	.cfi_startproc
	pushq	%rbp
	.seh_pushreg	%rbp
	.cfi_def_cfa_offset 16
	.cfi_offset 6, -16
	movq	%rsp, %rbp
	.seh_setframe	%rbp, 0
	.cfi_def_cfa_register 6
	subq	$32, %rsp
	.seh_stackalloc	32
	.seh_endprologue
	movq	%rcx, 16(%rbp)
	.loc 6 33 16
	movq	16(%rbp), %rax
	leaq	.LC0(%rip), %rdx
	movq	%rax, %rcx
	call	_ZNSt7__cxx1112basic_stringIcSt11char_traitsIcESaIcEEaSEPKc
	.loc 6 34 15
	movq	16(%rbp), %rax
	addq	$32, %rax
	leaq	.LC1(%rip), %rdx
	movq	%rax, %rcx
	call	_ZNSt7__cxx1112basic_stringIcSt11char_traitsIcESaIcEEaSEPKc
	.loc 6 35 19
	movq	16(%rbp), %rax
	movl	$123456, 64(%rax)
	.loc 6 36 5
	nop
	addq	$32, %rsp
	popq	%rbp
	.cfi_restore 6
	.cfi_def_cfa 7, 8
	ret
	.cfi_endproc
.LFE2443:
	.seh_endproc
	.section	.text$_ZN6PersonC1Ev,"x"
	.linkonce discard
	.align 2
	.globl	_ZN6PersonC1Ev
	.def	_ZN6PersonC1Ev;	.scl	2;	.type	32;	.endef
	.seh_proc	_ZN6PersonC1Ev
_ZN6PersonC1Ev:
.LFB2448:
	.loc 6 24 7
	.cfi_startproc
	pushq	%rbp
	.seh_pushreg	%rbp
	.cfi_def_cfa_offset 16
	.cfi_offset 6, -16
	movq	%rsp, %rbp
	.seh_setframe	%rbp, 0
	.cfi_def_cfa_register 6
	subq	$32, %rsp
	.seh_stackalloc	32
	.seh_endprologue
	movq	%rcx, 16(%rbp)
.LBB64:
	.loc 6 24 7
	movq	16(%rbp), %rax
	movq	%rax, %rcx
	call	_ZNSt7__cxx1112basic_stringIcSt11char_traitsIcESaIcEEC1Ev
	.loc 6 24 7 is_stmt 0 discriminator 1
	movq	16(%rbp), %rax
	addq	$32, %rax
	movq	%rax, %rcx
	call	_ZNSt7__cxx1112basic_stringIcSt11char_traitsIcESaIcEEC1Ev
.LBE64:
	.loc 6 24 7
	nop
	addq	$32, %rsp
	popq	%rbp
	.cfi_restore 6
	.cfi_def_cfa 7, 8
	ret
	.cfi_endproc
.LFE2448:
	.seh_endproc
	.section	.text$_ZNSt7__cxx1112basic_stringIcSt11char_traitsIcESaIcEE12_Alloc_hiderD1Ev,"x"
	.linkonce discard
	.align 2
	.globl	_ZNSt7__cxx1112basic_stringIcSt11char_traitsIcESaIcEE12_Alloc_hiderD1Ev
	.def	_ZNSt7__cxx1112basic_stringIcSt11char_traitsIcESaIcEE12_Alloc_hiderD1Ev;	.scl	2;	.type	32;	.endef
	.seh_proc	_ZNSt7__cxx1112basic_stringIcSt11char_traitsIcESaIcEE12_Alloc_hiderD1Ev
_ZNSt7__cxx1112basic_stringIcSt11char_traitsIcESaIcEE12_Alloc_hiderD1Ev:
.LFB2452:
	.loc 5 192 14 is_stmt 1
	.cfi_startproc
	pushq	%rbp
	.seh_pushreg	%rbp
	.cfi_def_cfa_offset 16
	.cfi_offset 6, -16
	movq	%rsp, %rbp
	.seh_setframe	%rbp, 0
	.cfi_def_cfa_register 6
	subq	$16, %rsp
	.seh_stackalloc	16
	.seh_endprologue
	movq	%rcx, 16(%rbp)
	movq	16(%rbp), %rax
	movq	%rax, -8(%rbp)
.LBB65:
.LBB66:
.LBB67:
	.file 7 "D:/Program Files/JetBrains/CLion 2024.2.3/bin/mingw/lib/gcc/x86_64-w64-mingw32/13.1.0/include/c++/bits/allocator.h"
	.loc 7 184 31
	nop
.LBE67:
.LBE66:
.LBE65:
	.loc 5 192 14
	nop
	addq	$16, %rsp
	popq	%rbp
	.cfi_restore 6
	.cfi_def_cfa 7, 8
	ret
	.cfi_endproc
.LFE2452:
	.seh_endproc
	.section	.text$_ZNSt7__cxx1112basic_stringIcSt11char_traitsIcESaIcEEC1Ev,"x"
	.linkonce discard
	.align 2
	.globl	_ZNSt7__cxx1112basic_stringIcSt11char_traitsIcESaIcEEC1Ev
	.def	_ZNSt7__cxx1112basic_stringIcSt11char_traitsIcESaIcEEC1Ev;	.scl	2;	.type	32;	.endef
	.seh_proc	_ZNSt7__cxx1112basic_stringIcSt11char_traitsIcESaIcEEC1Ev
_ZNSt7__cxx1112basic_stringIcSt11char_traitsIcESaIcEEC1Ev:
.LFB2454:
	.loc 5 523 7
	.cfi_startproc
	pushq	%rbp
	.seh_pushreg	%rbp
	.cfi_def_cfa_offset 16
	.cfi_offset 6, -16
	pushq	%rbx
	.seh_pushreg	%rbx
	.cfi_def_cfa_offset 24
	.cfi_offset 3, -24
	subq	$72, %rsp
	.seh_stackalloc	72
	.cfi_def_cfa_offset 96
	leaq	64(%rsp), %rbp
	.seh_setframe	%rbp, 64
	.cfi_def_cfa 6, 32
	.seh_endprologue
	movq	%rcx, 32(%rbp)
.LBB68:
	.loc 5 525 9
	movq	32(%rbp), %rbx
	leaq	-25(%rbp), %rax
	movq	%rax, -24(%rbp)
.LBB69:
.LBB70:
.LBB71:
.LBB72:
.LBB73:
	.file 8 "D:/Program Files/JetBrains/CLion 2024.2.3/bin/mingw/lib/gcc/x86_64-w64-mingw32/13.1.0/include/c++/bits/new_allocator.h"
	.loc 8 88 36
	nop
.LBE73:
.LBE72:
.LBE71:
	.loc 7 163 30
	nop
.LBE70:
.LBE69:
	.loc 5 525 9 discriminator 1
	movq	32(%rbp), %rax
	movq	%rax, %rcx
	call	_ZNSt7__cxx1112basic_stringIcSt11char_traitsIcESaIcEE13_M_local_dataEv
	.loc 5 525 9 is_stmt 0 discriminator 2
	leaq	-25(%rbp), %rdx
	movq	%rdx, %r8
	movq	%rax, %rdx
	movq	%rbx, %rcx
	call	_ZNSt7__cxx1112basic_stringIcSt11char_traitsIcESaIcEE12_Alloc_hiderC1EPcOS3_
.LBB74:
.LBB75:
	.loc 7 184 31 is_stmt 1
	nop
	movq	32(%rbp), %rax
	movq	%rax, -8(%rbp)
.LBE75:
.LBE74:
.LBB76:
.LBB77:
.LBB78:
	.loc 5 362 32
	call	_ZSt21is_constant_evaluatedv
	.loc 5 362 2 discriminator 1
	testb	%al, %al
	je	.L28
.LBB79:
.LBB80:
	.loc 5 363 19
	movq	$0, -16(%rbp)
	.loc 5 363 4
	jmp	.L29
.L30:
	.loc 5 364 24
	movq	-8(%rbp), %rdx
	movq	-16(%rbp), %rax
	addq	%rdx, %rax
	addq	$16, %rax
	movb	$0, (%rax)
	.loc 5 363 4 discriminator 3
	addq	$1, -16(%rbp)
.L29:
	.loc 5 363 32 discriminator 1
	cmpq	$15, -16(%rbp)
	jbe	.L30
.L28:
.LBE80:
.LBE79:
.LBE78:
	.loc 5 366 22
	movq	-8(%rbp), %rax
	movq	%rax, %rcx
	call	_ZNSt7__cxx1112basic_stringIcSt11char_traitsIcESaIcEE13_M_local_dataEv
	.loc 5 366 23
	nop
.LBE77:
.LBE76:
	.loc 5 528 15
	movq	32(%rbp), %rax
	movl	$0, %edx
	movq	%rax, %rcx
	call	_ZNSt7__cxx1112basic_stringIcSt11char_traitsIcESaIcEE13_M_set_lengthEy
.LBE68:
	.loc 5 529 7
	nop
	addq	$72, %rsp
	popq	%rbx
	.cfi_restore 3
	popq	%rbp
	.cfi_restore 6
	.cfi_def_cfa 7, -56
	ret
	.cfi_endproc
.LFE2454:
	.def	__gxx_personality_seh0;	.scl	2;	.type	32;	.endef
	.seh_handler	__gxx_personality_seh0, @unwind, @except
	.seh_handlerdata
.LLSDA2454:
	.byte	0xff
	.byte	0xff
	.byte	0x1
	.uleb128 .LLSDACSE2454-.LLSDACSB2454
.LLSDACSB2454:
.LLSDACSE2454:
	.section	.text$_ZNSt7__cxx1112basic_stringIcSt11char_traitsIcESaIcEEC1Ev,"x"
	.linkonce discard
	.seh_endproc
	.section	.text$_ZNSt7__cxx1112basic_stringIcSt11char_traitsIcESaIcEE13_M_local_dataEv,"x"
	.linkonce discard
	.align 2
	.globl	_ZNSt7__cxx1112basic_stringIcSt11char_traitsIcESaIcEE13_M_local_dataEv
	.def	_ZNSt7__cxx1112basic_stringIcSt11char_traitsIcESaIcEE13_M_local_dataEv;	.scl	2;	.type	32;	.endef
	.seh_proc	_ZNSt7__cxx1112basic_stringIcSt11char_traitsIcESaIcEE13_M_local_dataEv
_ZNSt7__cxx1112basic_stringIcSt11char_traitsIcESaIcEE13_M_local_dataEv:
.LFB2455:
	.loc 5 238 7
	.cfi_startproc
	pushq	%rbp
	.seh_pushreg	%rbp
	.cfi_def_cfa_offset 16
	.cfi_offset 6, -16
	movq	%rsp, %rbp
	.seh_setframe	%rbp, 0
	.cfi_def_cfa_register 6
	subq	$32, %rsp
	.seh_stackalloc	32
	.seh_endprologue
	movq	%rcx, 16(%rbp)
	.loc 5 241 51
	movq	16(%rbp), %rax
	addq	$16, %rax
	.loc 5 241 49
	movq	%rax, %rcx
	call	_ZNSt19__ptr_traits_ptr_toIPccLb0EE10pointer_toERc
	.loc 5 245 7
	addq	$32, %rsp
	popq	%rbp
	.cfi_restore 6
	.cfi_def_cfa 7, 8
	ret
	.cfi_endproc
.LFE2455:
	.seh_endproc
	.section	.text$_ZNSt19__ptr_traits_ptr_toIPccLb0EE10pointer_toERc,"x"
	.linkonce discard
	.globl	_ZNSt19__ptr_traits_ptr_toIPccLb0EE10pointer_toERc
	.def	_ZNSt19__ptr_traits_ptr_toIPccLb0EE10pointer_toERc;	.scl	2;	.type	32;	.endef
	.seh_proc	_ZNSt19__ptr_traits_ptr_toIPccLb0EE10pointer_toERc
_ZNSt19__ptr_traits_ptr_toIPccLb0EE10pointer_toERc:
.LFB2456:
	.file 9 "D:/Program Files/JetBrains/CLion 2024.2.3/bin/mingw/lib/gcc/x86_64-w64-mingw32/13.1.0/include/c++/bits/ptr_traits.h"
	.loc 9 141 7
	.cfi_startproc
	pushq	%rbp
	.seh_pushreg	%rbp
	.cfi_def_cfa_offset 16
	.cfi_offset 6, -16
	movq	%rsp, %rbp
	.seh_setframe	%rbp, 0
	.cfi_def_cfa_register 6
	subq	$32, %rsp
	.seh_stackalloc	32
	.seh_endprologue
	movq	%rcx, 16(%rbp)
	.loc 9 142 30
	movq	16(%rbp), %rax
	movq	%rax, %rcx
	call	_ZSt9addressofIcEPT_RS0_
	.loc 9 142 37
	addq	$32, %rsp
	popq	%rbp
	.cfi_restore 6
	.cfi_def_cfa 7, 8
	ret
	.cfi_endproc
.LFE2456:
	.seh_endproc
	.section	.text$_ZSt9addressofIcEPT_RS0_,"x"
	.linkonce discard
	.globl	_ZSt9addressofIcEPT_RS0_
	.def	_ZSt9addressofIcEPT_RS0_;	.scl	2;	.type	32;	.endef
	.seh_proc	_ZSt9addressofIcEPT_RS0_
_ZSt9addressofIcEPT_RS0_:
.LFB2457:
	.file 10 "D:/Program Files/JetBrains/CLion 2024.2.3/bin/mingw/lib/gcc/x86_64-w64-mingw32/13.1.0/include/c++/bits/move.h"
	.loc 10 145 5
	.cfi_startproc
	pushq	%rbp
	.seh_pushreg	%rbp
	.cfi_def_cfa_offset 16
	.cfi_offset 6, -16
	movq	%rsp, %rbp
	.seh_setframe	%rbp, 0
	.cfi_def_cfa_register 6
	subq	$32, %rsp
	.seh_stackalloc	32
	.seh_endprologue
	movq	%rcx, 16(%rbp)
	.loc 10 146 30
	movq	16(%rbp), %rax
	movq	%rax, %rcx
	call	_ZSt11__addressofIcEPT_RS0_
	.loc 10 146 37
	addq	$32, %rsp
	popq	%rbp
	.cfi_restore 6
	.cfi_def_cfa 7, 8
	ret
	.cfi_endproc
.LFE2457:
	.seh_endproc
	.section	.text$_ZSt11__addressofIcEPT_RS0_,"x"
	.linkonce discard
	.globl	_ZSt11__addressofIcEPT_RS0_
	.def	_ZSt11__addressofIcEPT_RS0_;	.scl	2;	.type	32;	.endef
	.seh_proc	_ZSt11__addressofIcEPT_RS0_
_ZSt11__addressofIcEPT_RS0_:
.LFB2458:
	.loc 10 49 5
	.cfi_startproc
	pushq	%rbp
	.seh_pushreg	%rbp
	.cfi_def_cfa_offset 16
	.cfi_offset 6, -16
	movq	%rsp, %rbp
	.seh_setframe	%rbp, 0
	.cfi_def_cfa_register 6
	.seh_endprologue
	movq	%rcx, 16(%rbp)
	.loc 10 50 37
	movq	16(%rbp), %rax
	.loc 10 50 40
	popq	%rbp
	.cfi_restore 6
	.cfi_def_cfa 7, 8
	ret
	.cfi_endproc
.LFE2458:
	.seh_endproc
	.section	.text$_ZNSt7__cxx1112basic_stringIcSt11char_traitsIcESaIcEE12_Alloc_hiderC1EPcOS3_,"x"
	.linkonce discard
	.align 2
	.globl	_ZNSt7__cxx1112basic_stringIcSt11char_traitsIcESaIcEE12_Alloc_hiderC1EPcOS3_
	.def	_ZNSt7__cxx1112basic_stringIcSt11char_traitsIcESaIcEE12_Alloc_hiderC1EPcOS3_;	.scl	2;	.type	32;	.endef
	.seh_proc	_ZNSt7__cxx1112basic_stringIcSt11char_traitsIcESaIcEE12_Alloc_hiderC1EPcOS3_
_ZNSt7__cxx1112basic_stringIcSt11char_traitsIcESaIcEE12_Alloc_hiderC1EPcOS3_:
.LFB2467:
	.loc 5 203 2
	.cfi_startproc
	pushq	%rbp
	.seh_pushreg	%rbp
	.cfi_def_cfa_offset 16
	.cfi_offset 6, -16
	movq	%rsp, %rbp
	.seh_setframe	%rbp, 0
	.cfi_def_cfa_register 6
	subq	$64, %rsp
	.seh_stackalloc	64
	.seh_endprologue
	movq	%rcx, 16(%rbp)
	movq	%rdx, 24(%rbp)
	movq	%r8, 32(%rbp)
.LBB81:
	.loc 5 204 28
	movq	32(%rbp), %rax
	movq	%rax, %rcx
	call	_ZSt4moveIRSaIcEEONSt16remove_referenceIT_E4typeEOS3_
	movq	16(%rbp), %rdx
	movq	%rdx, -8(%rbp)
	movq	%rax, -16(%rbp)
	movq	-8(%rbp), %rax
	movq	%rax, -24(%rbp)
	movq	-16(%rbp), %rax
	movq	%rax, -32(%rbp)
.LBB82:
.LBB83:
.LBB84:
.LBB85:
.LBB86:
	.loc 8 92 58
	nop
.LBE86:
.LBE85:
.LBE84:
	.loc 7 168 38
	nop
.LBE83:
.LBE82:
	.loc 5 204 36 discriminator 2
	movq	16(%rbp), %rax
	movq	24(%rbp), %rdx
	movq	%rdx, (%rax)
.LBE81:
	.loc 5 204 50
	nop
	addq	$64, %rsp
	popq	%rbp
	.cfi_restore 6
	.cfi_def_cfa 7, 8
	ret
	.cfi_endproc
.LFE2467:
	.seh_endproc
	.section	.text$_ZSt4moveIRSaIcEEONSt16remove_referenceIT_E4typeEOS3_,"x"
	.linkonce discard
	.globl	_ZSt4moveIRSaIcEEONSt16remove_referenceIT_E4typeEOS3_
	.def	_ZSt4moveIRSaIcEEONSt16remove_referenceIT_E4typeEOS3_;	.scl	2;	.type	32;	.endef
	.seh_proc	_ZSt4moveIRSaIcEEONSt16remove_referenceIT_E4typeEOS3_
_ZSt4moveIRSaIcEEONSt16remove_referenceIT_E4typeEOS3_:
.LFB2468:
	.loc 10 104 5
	.cfi_startproc
	pushq	%rbp
	.seh_pushreg	%rbp
	.cfi_def_cfa_offset 16
	.cfi_offset 6, -16
	movq	%rsp, %rbp
	.seh_setframe	%rbp, 0
	.cfi_def_cfa_register 6
	.seh_endprologue
	movq	%rcx, 16(%rbp)
	.loc 10 105 74
	movq	16(%rbp), %rax
	.loc 10 105 77
	popq	%rbp
	.cfi_restore 6
	.cfi_def_cfa 7, 8
	ret
	.cfi_endproc
.LFE2468:
	.seh_endproc
	.section	.text$_ZN6PersonD1Ev,"x"
	.linkonce discard
	.align 2
	.globl	_ZN6PersonD1Ev
	.def	_ZN6PersonD1Ev;	.scl	2;	.type	32;	.endef
	.seh_proc	_ZN6PersonD1Ev
_ZN6PersonD1Ev:
.LFB2481:
	.loc 6 24 7
	.cfi_startproc
	pushq	%rbp
	.seh_pushreg	%rbp
	.cfi_def_cfa_offset 16
	.cfi_offset 6, -16
	movq	%rsp, %rbp
	.seh_setframe	%rbp, 0
	.cfi_def_cfa_register 6
	subq	$32, %rsp
	.seh_stackalloc	32
	.seh_endprologue
	movq	%rcx, 16(%rbp)
.LBB87:
	.loc 6 24 7
	movq	16(%rbp), %rax
	addq	$32, %rax
	movq	%rax, %rcx
	call	_ZNSt7__cxx1112basic_stringIcSt11char_traitsIcESaIcEED1Ev
	.loc 6 24 7 is_stmt 0 discriminator 1
	movq	16(%rbp), %rax
	movq	%rax, %rcx
	call	_ZNSt7__cxx1112basic_stringIcSt11char_traitsIcESaIcEED1Ev
.LBE87:
	.loc 6 24 7
	nop
	addq	$32, %rsp
	popq	%rbp
	.cfi_restore 6
	.cfi_def_cfa 7, 8
	ret
	.cfi_endproc
.LFE2481:
	.seh_endproc
	.section .rdata,"dr"
.LC2:
	.ascii "\346\235\216\345\233\233\0"
	.text
	.globl	_Z6main12v
	.def	_Z6main12v;	.scl	2;	.type	32;	.endef
	.seh_proc	_Z6main12v
_Z6main12v:
.LFB2444:
	.loc 6 38 14 is_stmt 1
	.cfi_startproc
	pushq	%rbp
	.seh_pushreg	%rbp
	.cfi_def_cfa_offset 16
	.cfi_offset 6, -16
	pushq	%rbx
	.seh_pushreg	%rbx
	.cfi_def_cfa_offset 24
	.cfi_offset 3, -24
	subq	$136, %rsp
	.seh_stackalloc	136
	.cfi_def_cfa_offset 160
	leaq	128(%rsp), %rbp
	.seh_setframe	%rbp, 128
	.cfi_def_cfa 6, 32
	.seh_endprologue
	.loc 6 39 12
	leaq	-80(%rbp), %rax
	movq	%rax, %rcx
	call	_ZN6PersonC1Ev
	.loc 6 40 11
	leaq	-80(%rbp), %rax
	movq	%rax, %rcx
.LEHB0:
	call	_ZN6Person4funcEv
	.loc 6 42 15
	leaq	-80(%rbp), %rax
	leaq	.LC2(%rip), %rdx
	movq	%rax, %rcx
	call	_ZNSt7__cxx1112basic_stringIcSt11char_traitsIcESaIcEEaSEPKc
.LEHE0:
	.loc 6 52 11
	movl	$10, -88(%rbp)
	.loc 6 53 12
	movl	$0, %ebx
	.loc 6 54 1
	leaq	-80(%rbp), %rax
	movq	%rax, %rcx
	call	_ZN6PersonD1Ev
	.loc 6 53 12
	movl	%ebx, %eax
	jmp	.L48
.L47:
	.loc 6 54 1
	movq	%rax, %rbx
	leaq	-80(%rbp), %rax
	movq	%rax, %rcx
	call	_ZN6PersonD1Ev
	movq	%rbx, %rax
	movq	%rax, %rcx
.LEHB1:
	call	_Unwind_Resume
.LEHE1:
.L48:
	addq	$136, %rsp
	popq	%rbx
	.cfi_restore 3
	popq	%rbp
	.cfi_restore 6
	.cfi_def_cfa 7, -120
	ret
	.cfi_endproc
.LFE2444:
	.seh_handler	__gxx_personality_seh0, @unwind, @except
	.seh_handlerdata
.LLSDA2444:
	.byte	0xff
	.byte	0xff
	.byte	0x1
	.uleb128 .LLSDACSE2444-.LLSDACSB2444
.LLSDACSB2444:
	.uleb128 .LEHB0-.LFB2444
	.uleb128 .LEHE0-.LEHB0
	.uleb128 .L47-.LFB2444
	.uleb128 0
	.uleb128 .LEHB1-.LFB2444
	.uleb128 .LEHE1-.LEHB1
	.uleb128 0
	.uleb128 0
.LLSDACSE2444:
	.text
	.seh_endproc
	.section	.text$_ZSt12construct_atIcJRKcEEDTgsnwcvPvLi0E_T_pispcl7declvalIT0_EEEEPS3_DpOS4_,"x"
	.linkonce discard
	.globl	_ZSt12construct_atIcJRKcEEDTgsnwcvPvLi0E_T_pispcl7declvalIT0_EEEEPS3_DpOS4_
	.def	_ZSt12construct_atIcJRKcEEDTgsnwcvPvLi0E_T_pispcl7declvalIT0_EEEEPS3_DpOS4_;	.scl	2;	.type	32;	.endef
	.seh_proc	_ZSt12construct_atIcJRKcEEDTgsnwcvPvLi0E_T_pispcl7declvalIT0_EEEEPS3_DpOS4_
_ZSt12construct_atIcJRKcEEDTgsnwcvPvLi0E_T_pispcl7declvalIT0_EEEEPS3_DpOS4_:
.LFB2482:
	.file 11 "D:/Program Files/JetBrains/CLion 2024.2.3/bin/mingw/lib/gcc/x86_64-w64-mingw32/13.1.0/include/c++/bits/stl_construct.h"
	.loc 11 94 5
	.cfi_startproc
	pushq	%rbp
	.seh_pushreg	%rbp
	.cfi_def_cfa_offset 16
	.cfi_offset 6, -16
	pushq	%rbx
	.seh_pushreg	%rbx
	.cfi_def_cfa_offset 24
	.cfi_offset 3, -24
	subq	$40, %rsp
	.seh_stackalloc	40
	.cfi_def_cfa_offset 64
	leaq	32(%rsp), %rbp
	.seh_setframe	%rbp, 32
	.cfi_def_cfa 6, 32
	.seh_endprologue
	movq	%rcx, 32(%rbp)
	movq	%rdx, 40(%rbp)
	.loc 11 97 20
	movq	32(%rbp), %rax
	.loc 11 97 14
	movq	%rax, %rdx
	movl	$1, %ecx
	call	_ZnwyPv
	movq	%rax, %rbx
	.loc 11 97 62 discriminator 1
	movq	40(%rbp), %rax
	movq	%rax, %rcx
	call	_ZSt7forwardIRKcEOT_RNSt16remove_referenceIS2_E4typeE
	.loc 11 97 14 discriminator 2
	movzbl	(%rax), %eax
	movb	%al, (%rbx)
	.loc 11 97 73 discriminator 1
	movq	%rbx, %rax
	.loc 11 97 76
	addq	$40, %rsp
	popq	%rbx
	.cfi_restore 3
	popq	%rbp
	.cfi_restore 6
	.cfi_def_cfa 7, -24
	ret
	.cfi_endproc
.LFE2482:
	.seh_endproc
	.section	.text$_ZN9__gnu_cxx11char_traitsIcE6lengthEPKc,"x"
	.linkonce discard
	.align 2
	.globl	_ZN9__gnu_cxx11char_traitsIcE6lengthEPKc
	.def	_ZN9__gnu_cxx11char_traitsIcE6lengthEPKc;	.scl	2;	.type	32;	.endef
	.seh_proc	_ZN9__gnu_cxx11char_traitsIcE6lengthEPKc
_ZN9__gnu_cxx11char_traitsIcE6lengthEPKc:
.LFB2483:
	.loc 4 199 5
	.cfi_startproc
	pushq	%rbp
	.seh_pushreg	%rbp
	.cfi_def_cfa_offset 16
	.cfi_offset 6, -16
	movq	%rsp, %rbp
	.seh_setframe	%rbp, 0
	.cfi_def_cfa_register 6
	subq	$48, %rsp
	.seh_stackalloc	48
	.seh_endprologue
	movq	%rcx, 16(%rbp)
	.loc 4 202 19
	movq	$0, -8(%rbp)
	.loc 4 203 7
	jmp	.L52
.L53:
	.loc 4 204 9
	addq	$1, -8(%rbp)
.L52:
	.loc 4 203 17
	movb	$0, -9(%rbp)
	.loc 4 203 21
	movq	16(%rbp), %rdx
	movq	-8(%rbp), %rax
	leaq	(%rdx,%rax), %rcx
	.loc 4 203 17
	leaq	-9(%rbp), %rax
	movq	%rax, %rdx
	call	_ZN9__gnu_cxx11char_traitsIcE2eqERKcS3_
	.loc 4 203 17 is_stmt 0 discriminator 1
	xorl	$1, %eax
	testb	%al, %al
	jne	.L53
	.loc 4 205 14 is_stmt 1
	movq	-8(%rbp), %rax
	.loc 4 206 5
	addq	$48, %rsp
	popq	%rbp
	.cfi_restore 6
	.cfi_def_cfa 7, 8
	ret
	.cfi_endproc
.LFE2483:
	.seh_endproc
	.section	.text$_ZN9__gnu_cxx11char_traitsIcE4moveEPcPKcy,"x"
	.linkonce discard
	.align 2
	.globl	_ZN9__gnu_cxx11char_traitsIcE4moveEPcPKcy
	.def	_ZN9__gnu_cxx11char_traitsIcE4moveEPcPKcy;	.scl	2;	.type	32;	.endef
	.seh_proc	_ZN9__gnu_cxx11char_traitsIcE4moveEPcPKcy
_ZN9__gnu_cxx11char_traitsIcE4moveEPcPKcy:
.LFB2485:
	.loc 4 222 5
	.cfi_startproc
	pushq	%rbp
	.seh_pushreg	%rbp
	.cfi_def_cfa_offset 16
	.cfi_offset 6, -16
	movq	%rsp, %rbp
	.seh_setframe	%rbp, 0
	.cfi_def_cfa_register 6
	subq	$64, %rsp
	.seh_stackalloc	64
	.seh_endprologue
	movq	%rcx, 16(%rbp)
	movq	%rdx, 24(%rbp)
	movq	%r8, 32(%rbp)
	.loc 4 225 7
	cmpq	$0, 32(%rbp)
	jne	.L56
	.loc 4 226 9
	movq	16(%rbp), %rax
	jmp	.L57
.L56:
.LBB88:
	.loc 4 228 39
	call	_ZSt23__is_constant_evaluatedv
	.loc 4 228 7 discriminator 1
	testb	%al, %al
	je	.L58
.LBB89:
	.loc 4 230 4
	movq	16(%rbp), %rax
	cmpq	24(%rbp), %rax
	jne	.L59
	.loc 4 231 13
	movq	16(%rbp), %rax
	jmp	.L57
.L59:
	.loc 4 232 34
	movq	32(%rbp), %rax
	leaq	-1(%rax), %rdx
	.loc 4 232 15
	movq	24(%rbp), %rax
	addq	%rdx, %rax
	movq	%rax, -24(%rbp)
	.loc 4 233 9
	movb	$0, -1(%rbp)
.LBB90:
	.loc 4 234 21
	movq	$0, -16(%rbp)
	.loc 4 234 4
	jmp	.L60
.L63:
	.loc 4 236 17
	movq	16(%rbp), %rdx
	movq	-16(%rbp), %rax
	addq	%rdx, %rax
	.loc 4 236 8
	cmpq	%rax, -24(%rbp)
	jne	.L61
	.loc 4 238 15
	movb	$1, -1(%rbp)
	.loc 4 239 5
	jmp	.L62
.L61:
	.loc 4 234 4 discriminator 2
	addq	$1, -16(%rbp)
.L60:
	.loc 4 234 40 discriminator 1
	movq	32(%rbp), %rax
	subq	$1, %rax
	.loc 4 234 34 discriminator 1
	cmpq	%rax, -16(%rbp)
	jb	.L63
.L62:
.LBE90:
	.loc 4 242 4
	cmpb	$0, -1(%rbp)
	je	.L64
.L65:
	.loc 4 246 5
	subq	$1, 32(%rbp)
	.loc 4 247 27
	movq	24(%rbp), %rdx
	movq	32(%rbp), %rax
	addq	%rax, %rdx
	.loc 4 247 16
	movq	16(%rbp), %rcx
	movq	32(%rbp), %rax
	addq	%rcx, %rax
	.loc 4 247 11
	movq	%rax, %rcx
	call	_ZN9__gnu_cxx11char_traitsIcE6assignERcRKc
	.loc 4 249 19 discriminator 1
	cmpq	$0, 32(%rbp)
	jne	.L65
	jmp	.L66
.L64:
	.loc 4 252 10
	movq	32(%rbp), %rcx
	movq	24(%rbp), %rdx
	movq	16(%rbp), %rax
	movq	%rcx, %r8
	movq	%rax, %rcx
	call	_ZN9__gnu_cxx11char_traitsIcE4copyEPcPKcy
.L66:
	.loc 4 253 11
	movq	16(%rbp), %rax
	jmp	.L57
.L58:
.LBE89:
.LBE88:
	.loc 4 256 24
	movq	32(%rbp), %rcx
	movq	24(%rbp), %rdx
	movq	16(%rbp), %rax
	movq	%rcx, %r8
	movq	%rax, %rcx
	call	memmove
	.loc 4 257 14
	movq	16(%rbp), %rax
.L57:
	.loc 4 258 5
	addq	$64, %rsp
	popq	%rbp
	.cfi_restore 6
	.cfi_def_cfa 7, 8
	ret
	.cfi_endproc
.LFE2485:
	.seh_endproc
	.section	.text$_ZN9__gnu_cxx11char_traitsIcE4copyEPcPKcy,"x"
	.linkonce discard
	.align 2
	.globl	_ZN9__gnu_cxx11char_traitsIcE4copyEPcPKcy
	.def	_ZN9__gnu_cxx11char_traitsIcE4copyEPcPKcy;	.scl	2;	.type	32;	.endef
	.seh_proc	_ZN9__gnu_cxx11char_traitsIcE4copyEPcPKcy
_ZN9__gnu_cxx11char_traitsIcE4copyEPcPKcy:
.LFB2486:
	.loc 4 263 5
	.cfi_startproc
	pushq	%rbp
	.seh_pushreg	%rbp
	.cfi_def_cfa_offset 16
	.cfi_offset 6, -16
	movq	%rsp, %rbp
	.seh_setframe	%rbp, 0
	.cfi_def_cfa_register 6
	subq	$48, %rsp
	.seh_stackalloc	48
	.seh_endprologue
	movq	%rcx, 16(%rbp)
	movq	%rdx, 24(%rbp)
	movq	%r8, 32(%rbp)
	.loc 4 266 7
	cmpq	$0, 32(%rbp)
	jne	.L68
	.loc 4 267 9
	movq	16(%rbp), %rax
	jmp	.L69
.L68:
.LBB91:
	.loc 4 269 39
	call	_ZSt23__is_constant_evaluatedv
	.loc 4 269 7 discriminator 1
	testb	%al, %al
	je	.L70
.LBB92:
.LBB93:
	.loc 4 271 21
	movq	$0, -8(%rbp)
	.loc 4 271 4
	jmp	.L71
.L72:
	.loc 4 272 40
	movq	24(%rbp), %rdx
	movq	-8(%rbp), %rax
	addq	%rax, %rdx
	.loc 4 272 23
	movq	16(%rbp), %rcx
	movq	-8(%rbp), %rax
	addq	%rcx, %rax
	movq	%rax, %rcx
	call	_ZSt12construct_atIcJRKcEEDTgsnwcvPvLi0E_T_pispcl7declvalIT0_EEEEPS3_DpOS4_
	.loc 4 271 4 discriminator 3
	addq	$1, -8(%rbp)
.L71:
	.loc 4 271 34 discriminator 1
	movq	-8(%rbp), %rax
	cmpq	32(%rbp), %rax
	jb	.L72
.LBE93:
	.loc 4 273 11
	movq	16(%rbp), %rax
	jmp	.L69
.L70:
.LBE92:
.LBE91:
	.loc 4 276 23
	movq	16(%rbp), %rdx
	movq	24(%rbp), %rax
	movq	%rdx, %rcx
	movq	%rax, %rdx
	movq	32(%rbp), %rax
	movq	%rax, %r8
	call	memcpy
	.loc 4 277 14
	movq	16(%rbp), %rax
.L69:
	.loc 4 278 5
	addq	$48, %rsp
	popq	%rbp
	.cfi_restore 6
	.cfi_def_cfa 7, 8
	ret
	.cfi_endproc
.LFE2486:
	.seh_endproc
	.section	.text$_ZNSt7__cxx1112basic_stringIcSt11char_traitsIcESaIcEED1Ev,"x"
	.linkonce discard
	.align 2
	.globl	_ZNSt7__cxx1112basic_stringIcSt11char_traitsIcESaIcEED1Ev
	.def	_ZNSt7__cxx1112basic_stringIcSt11char_traitsIcESaIcEED1Ev;	.scl	2;	.type	32;	.endef
	.seh_proc	_ZNSt7__cxx1112basic_stringIcSt11char_traitsIcESaIcEED1Ev
_ZNSt7__cxx1112basic_stringIcSt11char_traitsIcESaIcEED1Ev:
.LFB2620:
	.loc 5 802 7
	.cfi_startproc
	pushq	%rbp
	.seh_pushreg	%rbp
	.cfi_def_cfa_offset 16
	.cfi_offset 6, -16
	movq	%rsp, %rbp
	.seh_setframe	%rbp, 0
	.cfi_def_cfa_register 6
	subq	$32, %rsp
	.seh_stackalloc	32
	.seh_endprologue
	movq	%rcx, 16(%rbp)
.LBB94:
	.loc 5 803 19
	movq	16(%rbp), %rax
	movq	%rax, %rcx
	call	_ZNSt7__cxx1112basic_stringIcSt11char_traitsIcESaIcEE10_M_disposeEv
	.loc 5 803 23 discriminator 1
	movq	16(%rbp), %rax
	movq	%rax, %rcx
	call	_ZNSt7__cxx1112basic_stringIcSt11char_traitsIcESaIcEE12_Alloc_hiderD1Ev
.LBE94:
	.loc 5 803 23 is_stmt 0
	nop
	addq	$32, %rsp
	popq	%rbp
	.cfi_restore 6
	.cfi_def_cfa 7, 8
	ret
	.cfi_endproc
.LFE2620:
	.seh_handler	__gxx_personality_seh0, @unwind, @except
	.seh_handlerdata
.LLSDA2620:
	.byte	0xff
	.byte	0xff
	.byte	0x1
	.uleb128 .LLSDACSE2620-.LLSDACSB2620
.LLSDACSB2620:
.LLSDACSE2620:
	.section	.text$_ZNSt7__cxx1112basic_stringIcSt11char_traitsIcESaIcEED1Ev,"x"
	.linkonce discard
	.seh_endproc
	.section	.text$_ZNSt7__cxx1112basic_stringIcSt11char_traitsIcESaIcEEaSEPKc,"x"
	.linkonce discard
	.align 2
	.globl	_ZNSt7__cxx1112basic_stringIcSt11char_traitsIcESaIcEEaSEPKc
	.def	_ZNSt7__cxx1112basic_stringIcSt11char_traitsIcESaIcEEaSEPKc;	.scl	2;	.type	32;	.endef
	.seh_proc	_ZNSt7__cxx1112basic_stringIcSt11char_traitsIcESaIcEEaSEPKc
_ZNSt7__cxx1112basic_stringIcSt11char_traitsIcESaIcEEaSEPKc:
.LFB2773:
	.loc 5 822 7 is_stmt 1
	.cfi_startproc
	pushq	%rbp
	.seh_pushreg	%rbp
	.cfi_def_cfa_offset 16
	.cfi_offset 6, -16
	movq	%rsp, %rbp
	.seh_setframe	%rbp, 0
	.cfi_def_cfa_register 6
	subq	$32, %rsp
	.seh_stackalloc	32
	.seh_endprologue
	movq	%rcx, 16(%rbp)
	movq	%rdx, 24(%rbp)
	.loc 5 823 28
	movq	24(%rbp), %rdx
	movq	16(%rbp), %rax
	movq	%rax, %rcx
	call	_ZNSt7__cxx1112basic_stringIcSt11char_traitsIcESaIcEE6assignEPKc
	.loc 5 823 35
	addq	$32, %rsp
	popq	%rbp
	.cfi_restore 6
	.cfi_def_cfa 7, 8
	ret
	.cfi_endproc
.LFE2773:
	.seh_endproc
	.section	.text$_ZNSt7__cxx1112basic_stringIcSt11char_traitsIcESaIcEE13_M_set_lengthEy,"x"
	.linkonce discard
	.align 2
	.globl	_ZNSt7__cxx1112basic_stringIcSt11char_traitsIcESaIcEE13_M_set_lengthEy
	.def	_ZNSt7__cxx1112basic_stringIcSt11char_traitsIcESaIcEE13_M_set_lengthEy;	.scl	2;	.type	32;	.endef
	.seh_proc	_ZNSt7__cxx1112basic_stringIcSt11char_traitsIcESaIcEE13_M_set_lengthEy
_ZNSt7__cxx1112basic_stringIcSt11char_traitsIcESaIcEE13_M_set_lengthEy:
.LFB2774:
	.loc 5 265 7
	.cfi_startproc
	pushq	%rbp
	.seh_pushreg	%rbp
	.cfi_def_cfa_offset 16
	.cfi_offset 6, -16
	movq	%rsp, %rbp
	.seh_setframe	%rbp, 0
	.cfi_def_cfa_register 6
	subq	$48, %rsp
	.seh_stackalloc	48
	.seh_endprologue
	movq	%rcx, 16(%rbp)
	movq	%rdx, 24(%rbp)
	.loc 5 267 11
	movq	24(%rbp), %rdx
	movq	16(%rbp), %rax
	movq	%rax, %rcx
	call	_ZNSt7__cxx1112basic_stringIcSt11char_traitsIcESaIcEE9_M_lengthEy
	.loc 5 268 21
	movb	$0, -1(%rbp)
	.loc 5 268 29
	movq	16(%rbp), %rax
	movq	%rax, %rcx
	call	_ZNKSt7__cxx1112basic_stringIcSt11char_traitsIcESaIcEE7_M_dataEv
	.loc 5 268 31 discriminator 1
	movq	24(%rbp), %rdx
	leaq	(%rax,%rdx), %rcx
	.loc 5 268 21 discriminator 1
	leaq	-1(%rbp), %rax
	movq	%rax, %rdx
	call	_ZNSt11char_traitsIcE6assignERcRKc
	.loc 5 269 7
	nop
	addq	$48, %rsp
	popq	%rbp
	.cfi_restore 6
	.cfi_def_cfa 7, 8
	ret
	.cfi_endproc
.LFE2774:
	.seh_endproc
	.section	.text$_ZSt7forwardIRKcEOT_RNSt16remove_referenceIS2_E4typeE,"x"
	.linkonce discard
	.globl	_ZSt7forwardIRKcEOT_RNSt16remove_referenceIS2_E4typeE
	.def	_ZSt7forwardIRKcEOT_RNSt16remove_referenceIS2_E4typeE;	.scl	2;	.type	32;	.endef
	.seh_proc	_ZSt7forwardIRKcEOT_RNSt16remove_referenceIS2_E4typeE
_ZSt7forwardIRKcEOT_RNSt16remove_referenceIS2_E4typeE:
.LFB2775:
	.loc 10 77 5
	.cfi_startproc
	pushq	%rbp
	.seh_pushreg	%rbp
	.cfi_def_cfa_offset 16
	.cfi_offset 6, -16
	movq	%rsp, %rbp
	.seh_setframe	%rbp, 0
	.cfi_def_cfa_register 6
	.seh_endprologue
	movq	%rcx, 16(%rbp)
	.loc 10 78 36
	movq	16(%rbp), %rax
	.loc 10 78 39
	popq	%rbp
	.cfi_restore 6
	.cfi_def_cfa 7, 8
	ret
	.cfi_endproc
.LFE2775:
	.seh_endproc
	.section	.text$_ZN9__gnu_cxx11char_traitsIcE2eqERKcS3_,"x"
	.linkonce discard
	.globl	_ZN9__gnu_cxx11char_traitsIcE2eqERKcS3_
	.def	_ZN9__gnu_cxx11char_traitsIcE2eqERKcS3_;	.scl	2;	.type	32;	.endef
	.seh_proc	_ZN9__gnu_cxx11char_traitsIcE2eqERKcS3_
_ZN9__gnu_cxx11char_traitsIcE2eqERKcS3_:
.LFB2776:
	.loc 4 136 7
	.cfi_startproc
	pushq	%rbp
	.seh_pushreg	%rbp
	.cfi_def_cfa_offset 16
	.cfi_offset 6, -16
	movq	%rsp, %rbp
	.seh_setframe	%rbp, 0
	.cfi_def_cfa_register 6
	.seh_endprologue
	movq	%rcx, 16(%rbp)
	movq	%rdx, 24(%rbp)
	.loc 4 137 21
	movq	16(%rbp), %rax
	movzbl	(%rax), %edx
	movq	24(%rbp), %rax
	movzbl	(%rax), %eax
	.loc 4 137 24
	cmpb	%al, %dl
	sete	%al
	.loc 4 137 30
	popq	%rbp
	.cfi_restore 6
	.cfi_def_cfa 7, 8
	ret
	.cfi_endproc
.LFE2776:
	.seh_endproc
	.section	.text$_ZN9__gnu_cxx11char_traitsIcE6assignERcRKc,"x"
	.linkonce discard
	.globl	_ZN9__gnu_cxx11char_traitsIcE6assignERcRKc
	.def	_ZN9__gnu_cxx11char_traitsIcE6assignERcRKc;	.scl	2;	.type	32;	.endef
	.seh_proc	_ZN9__gnu_cxx11char_traitsIcE6assignERcRKc
_ZN9__gnu_cxx11char_traitsIcE6assignERcRKc:
.LFB2777:
	.loc 4 125 7
	.cfi_startproc
	pushq	%rbp
	.seh_pushreg	%rbp
	.cfi_def_cfa_offset 16
	.cfi_offset 6, -16
	movq	%rsp, %rbp
	.seh_setframe	%rbp, 0
	.cfi_def_cfa_register 6
	subq	$32, %rsp
	.seh_stackalloc	32
	.seh_endprologue
	movq	%rcx, 16(%rbp)
	movq	%rdx, 24(%rbp)
	.loc 4 128 34
	call	_ZSt23__is_constant_evaluatedv
	.loc 4 128 2 discriminator 1
	testb	%al, %al
	je	.L82
	.loc 4 129 21
	movq	24(%rbp), %rdx
	movq	16(%rbp), %rax
	movq	%rax, %rcx
	call	_ZSt12construct_atIcJRKcEEDTgsnwcvPvLi0E_T_pispcl7declvalIT0_EEEEPS3_DpOS4_
	.loc 4 133 7
	jmp	.L84
.L82:
	.loc 4 132 7
	movq	24(%rbp), %rax
	movzbl	(%rax), %edx
	movq	16(%rbp), %rax
	movb	%dl, (%rax)
.L84:
	.loc 4 133 7
	nop
	addq	$32, %rsp
	popq	%rbp
	.cfi_restore 6
	.cfi_def_cfa 7, 8
	ret
	.cfi_endproc
.LFE2777:
	.seh_endproc
	.section	.text$_ZNKSt7__cxx1112basic_stringIcSt11char_traitsIcESaIcEE7_M_dataEv,"x"
	.linkonce discard
	.align 2
	.globl	_ZNKSt7__cxx1112basic_stringIcSt11char_traitsIcESaIcEE7_M_dataEv
	.def	_ZNKSt7__cxx1112basic_stringIcSt11char_traitsIcESaIcEE7_M_dataEv;	.scl	2;	.type	32;	.endef
	.seh_proc	_ZNKSt7__cxx1112basic_stringIcSt11char_traitsIcESaIcEE7_M_dataEv
_ZNKSt7__cxx1112basic_stringIcSt11char_traitsIcESaIcEE7_M_dataEv:
.LFB2793:
	.loc 5 233 7
	.cfi_startproc
	pushq	%rbp
	.seh_pushreg	%rbp
	.cfi_def_cfa_offset 16
	.cfi_offset 6, -16
	movq	%rsp, %rbp
	.seh_setframe	%rbp, 0
	.cfi_def_cfa_register 6
	.seh_endprologue
	movq	%rcx, 16(%rbp)
	.loc 5 234 28
	movq	16(%rbp), %rax
	movq	(%rax), %rax
	.loc 5 234 34
	popq	%rbp
	.cfi_restore 6
	.cfi_def_cfa 7, 8
	ret
	.cfi_endproc
.LFE2793:
	.seh_endproc
	.section	.text$_ZNSt7__cxx1112basic_stringIcSt11char_traitsIcESaIcEE10_M_disposeEv,"x"
	.linkonce discard
	.align 2
	.globl	_ZNSt7__cxx1112basic_stringIcSt11char_traitsIcESaIcEE10_M_disposeEv
	.def	_ZNSt7__cxx1112basic_stringIcSt11char_traitsIcESaIcEE10_M_disposeEv;	.scl	2;	.type	32;	.endef
	.seh_proc	_ZNSt7__cxx1112basic_stringIcSt11char_traitsIcESaIcEE10_M_disposeEv
_ZNSt7__cxx1112basic_stringIcSt11char_traitsIcESaIcEE10_M_disposeEv:
.LFB2798:
	.loc 5 291 7
	.cfi_startproc
	pushq	%rbp
	.seh_pushreg	%rbp
	.cfi_def_cfa_offset 16
	.cfi_offset 6, -16
	movq	%rsp, %rbp
	.seh_setframe	%rbp, 0
	.cfi_def_cfa_register 6
	subq	$32, %rsp
	.seh_stackalloc	32
	.seh_endprologue
	movq	%rcx, 16(%rbp)
	.loc 5 293 18
	movq	16(%rbp), %rax
	movq	%rax, %rcx
	call	_ZNKSt7__cxx1112basic_stringIcSt11char_traitsIcESaIcEE11_M_is_localEv
	.loc 5 293 18 is_stmt 0 discriminator 1
	xorl	$1, %eax
	.loc 5 293 2 is_stmt 1 discriminator 1
	testb	%al, %al
	je	.L89
	.loc 5 294 14
	movq	16(%rbp), %rax
	movq	16(%rax), %rdx
	movq	16(%rbp), %rax
	movq	%rax, %rcx
	call	_ZNSt7__cxx1112basic_stringIcSt11char_traitsIcESaIcEE10_M_destroyEy
.L89:
	.loc 5 295 7
	nop
	addq	$32, %rsp
	popq	%rbp
	.cfi_restore 6
	.cfi_def_cfa 7, 8
	ret
	.cfi_endproc
.LFE2798:
	.seh_endproc
	.section	.text$_ZNSt7__cxx1112basic_stringIcSt11char_traitsIcESaIcEE16_M_get_allocatorEv,"x"
	.linkonce discard
	.align 2
	.globl	_ZNSt7__cxx1112basic_stringIcSt11char_traitsIcESaIcEE16_M_get_allocatorEv
	.def	_ZNSt7__cxx1112basic_stringIcSt11char_traitsIcESaIcEE16_M_get_allocatorEv;	.scl	2;	.type	32;	.endef
	.seh_proc	_ZNSt7__cxx1112basic_stringIcSt11char_traitsIcESaIcEE16_M_get_allocatorEv
_ZNSt7__cxx1112basic_stringIcSt11char_traitsIcESaIcEE16_M_get_allocatorEv:
.LFB2799:
	.loc 5 347 7
	.cfi_startproc
	pushq	%rbp
	.seh_pushreg	%rbp
	.cfi_def_cfa_offset 16
	.cfi_offset 6, -16
	movq	%rsp, %rbp
	.seh_setframe	%rbp, 0
	.cfi_def_cfa_register 6
	.seh_endprologue
	movq	%rcx, 16(%rbp)
	.loc 5 348 16
	movq	16(%rbp), %rax
	.loc 5 348 29
	popq	%rbp
	.cfi_restore 6
	.cfi_def_cfa 7, 8
	ret
	.cfi_endproc
.LFE2799:
	.seh_endproc
	.section	.text$_ZNKSt7__cxx1112basic_stringIcSt11char_traitsIcESaIcEE11_M_is_localEv,"x"
	.linkonce discard
	.align 2
	.globl	_ZNKSt7__cxx1112basic_stringIcSt11char_traitsIcESaIcEE11_M_is_localEv
	.def	_ZNKSt7__cxx1112basic_stringIcSt11char_traitsIcESaIcEE11_M_is_localEv;	.scl	2;	.type	32;	.endef
	.seh_proc	_ZNKSt7__cxx1112basic_stringIcSt11char_traitsIcESaIcEE11_M_is_localEv
_ZNKSt7__cxx1112basic_stringIcSt11char_traitsIcESaIcEE11_M_is_localEv:
.LFB2800:
	.loc 5 273 7
	.cfi_startproc
	pushq	%rbp
	.seh_pushreg	%rbp
	.cfi_def_cfa_offset 16
	.cfi_offset 6, -16
	pushq	%rbx
	.seh_pushreg	%rbx
	.cfi_def_cfa_offset 24
	.cfi_offset 3, -24
	subq	$40, %rsp
	.seh_stackalloc	40
	.cfi_def_cfa_offset 64
	leaq	32(%rsp), %rbp
	.seh_setframe	%rbp, 32
	.cfi_def_cfa 6, 32
	.seh_endprologue
	movq	%rcx, 32(%rbp)
	.loc 5 275 13
	movq	32(%rbp), %rax
	movq	%rax, %rcx
	call	_ZNKSt7__cxx1112basic_stringIcSt11char_traitsIcESaIcEE7_M_dataEv
	movq	%rax, %rbx
	.loc 5 275 32 discriminator 1
	movq	32(%rbp), %rax
	movq	%rax, %rcx
	call	_ZNKSt7__cxx1112basic_stringIcSt11char_traitsIcESaIcEE13_M_local_dataEv
	.loc 5 275 16 discriminator 2
	cmpq	%rax, %rbx
	sete	%al
	.loc 5 275 2 discriminator 2
	testb	%al, %al
	je	.L93
	.loc 5 277 10
	movq	32(%rbp), %rax
	movq	8(%rax), %rax
	.loc 5 277 6
	cmpq	$15, %rax
	.loc 5 279 13
	movl	$1, %eax
	jmp	.L95
.L93:
	.loc 5 281 9
	movl	$0, %eax
.L95:
	.loc 5 282 7
	addq	$40, %rsp
	popq	%rbx
	.cfi_restore 3
	popq	%rbp
	.cfi_restore 6
	.cfi_def_cfa 7, -24
	ret
	.cfi_endproc
.LFE2800:
	.seh_endproc
	.section	.text$_ZNKSt7__cxx1112basic_stringIcSt11char_traitsIcESaIcEE6lengthEv,"x"
	.linkonce discard
	.align 2
	.globl	_ZNKSt7__cxx1112basic_stringIcSt11char_traitsIcESaIcEE6lengthEv
	.def	_ZNKSt7__cxx1112basic_stringIcSt11char_traitsIcESaIcEE6lengthEv;	.scl	2;	.type	32;	.endef
	.seh_proc	_ZNKSt7__cxx1112basic_stringIcSt11char_traitsIcESaIcEE6lengthEv
_ZNKSt7__cxx1112basic_stringIcSt11char_traitsIcESaIcEE6lengthEv:
.LFB2801:
	.loc 5 1077 7
	.cfi_startproc
	pushq	%rbp
	.seh_pushreg	%rbp
	.cfi_def_cfa_offset 16
	.cfi_offset 6, -16
	movq	%rsp, %rbp
	.seh_setframe	%rbp, 0
	.cfi_def_cfa_register 6
	.seh_endprologue
	movq	%rcx, 16(%rbp)
	.loc 5 1078 16
	movq	16(%rbp), %rax
	movq	8(%rax), %rax
	.loc 5 1078 34
	popq	%rbp
	.cfi_restore 6
	.cfi_def_cfa 7, 8
	ret
	.cfi_endproc
.LFE2801:
	.seh_endproc
	.section	.text$_ZNSt7__cxx1112basic_stringIcSt11char_traitsIcESaIcEE7_M_dataEPc,"x"
	.linkonce discard
	.align 2
	.globl	_ZNSt7__cxx1112basic_stringIcSt11char_traitsIcESaIcEE7_M_dataEPc
	.def	_ZNSt7__cxx1112basic_stringIcSt11char_traitsIcESaIcEE7_M_dataEPc;	.scl	2;	.type	32;	.endef
	.seh_proc	_ZNSt7__cxx1112basic_stringIcSt11char_traitsIcESaIcEE7_M_dataEPc
_ZNSt7__cxx1112basic_stringIcSt11char_traitsIcESaIcEE7_M_dataEPc:
.LFB2802:
	.loc 5 223 7
	.cfi_startproc
	pushq	%rbp
	.seh_pushreg	%rbp
	.cfi_def_cfa_offset 16
	.cfi_offset 6, -16
	movq	%rsp, %rbp
	.seh_setframe	%rbp, 0
	.cfi_def_cfa_register 6
	.seh_endprologue
	movq	%rcx, 16(%rbp)
	movq	%rdx, 24(%rbp)
	.loc 5 224 26
	movq	16(%rbp), %rax
	movq	24(%rbp), %rdx
	movq	%rdx, (%rax)
	.loc 5 224 33
	nop
	popq	%rbp
	.cfi_restore 6
	.cfi_def_cfa 7, 8
	ret
	.cfi_endproc
.LFE2802:
	.seh_endproc
	.section	.text$_ZNSt7__cxx1112basic_stringIcSt11char_traitsIcESaIcEE11_M_capacityEy,"x"
	.linkonce discard
	.align 2
	.globl	_ZNSt7__cxx1112basic_stringIcSt11char_traitsIcESaIcEE11_M_capacityEy
	.def	_ZNSt7__cxx1112basic_stringIcSt11char_traitsIcESaIcEE11_M_capacityEy;	.scl	2;	.type	32;	.endef
	.seh_proc	_ZNSt7__cxx1112basic_stringIcSt11char_traitsIcESaIcEE11_M_capacityEy
_ZNSt7__cxx1112basic_stringIcSt11char_traitsIcESaIcEE11_M_capacityEy:
.LFB2803:
	.loc 5 260 7
	.cfi_startproc
	pushq	%rbp
	.seh_pushreg	%rbp
	.cfi_def_cfa_offset 16
	.cfi_offset 6, -16
	movq	%rsp, %rbp
	.seh_setframe	%rbp, 0
	.cfi_def_cfa_register 6
	.seh_endprologue
	movq	%rcx, 16(%rbp)
	movq	%rdx, 24(%rbp)
	.loc 5 261 31
	movq	16(%rbp), %rax
	movq	24(%rbp), %rdx
	movq	%rdx, 16(%rax)
	.loc 5 261 45
	nop
	popq	%rbp
	.cfi_restore 6
	.cfi_def_cfa 7, 8
	ret
	.cfi_endproc
.LFE2803:
	.seh_endproc
	.section	.text$_ZNSt7__cxx1112basic_stringIcSt11char_traitsIcESaIcEE9_M_lengthEy,"x"
	.linkonce discard
	.align 2
	.globl	_ZNSt7__cxx1112basic_stringIcSt11char_traitsIcESaIcEE9_M_lengthEy
	.def	_ZNSt7__cxx1112basic_stringIcSt11char_traitsIcESaIcEE9_M_lengthEy;	.scl	2;	.type	32;	.endef
	.seh_proc	_ZNSt7__cxx1112basic_stringIcSt11char_traitsIcESaIcEE9_M_lengthEy
_ZNSt7__cxx1112basic_stringIcSt11char_traitsIcESaIcEE9_M_lengthEy:
.LFB2804:
	.loc 5 228 7
	.cfi_startproc
	pushq	%rbp
	.seh_pushreg	%rbp
	.cfi_def_cfa_offset 16
	.cfi_offset 6, -16
	movq	%rsp, %rbp
	.seh_setframe	%rbp, 0
	.cfi_def_cfa_register 6
	.seh_endprologue
	movq	%rcx, 16(%rbp)
	movq	%rdx, 24(%rbp)
	.loc 5 229 26
	movq	16(%rbp), %rax
	movq	24(%rbp), %rdx
	movq	%rdx, 8(%rax)
	.loc 5 229 38
	nop
	popq	%rbp
	.cfi_restore 6
	.cfi_def_cfa 7, 8
	ret
	.cfi_endproc
.LFE2804:
	.seh_endproc
	.section	.text$_ZNKSt7__cxx1112basic_stringIcSt11char_traitsIcESaIcEE8capacityEv,"x"
	.linkonce discard
	.align 2
	.globl	_ZNKSt7__cxx1112basic_stringIcSt11char_traitsIcESaIcEE8capacityEv
	.def	_ZNKSt7__cxx1112basic_stringIcSt11char_traitsIcESaIcEE8capacityEv;	.scl	2;	.type	32;	.endef
	.seh_proc	_ZNKSt7__cxx1112basic_stringIcSt11char_traitsIcESaIcEE8capacityEv
_ZNKSt7__cxx1112basic_stringIcSt11char_traitsIcESaIcEE8capacityEv:
.LFB2881:
	.loc 5 1168 7
	.cfi_startproc
	pushq	%rbp
	.seh_pushreg	%rbp
	.cfi_def_cfa_offset 16
	.cfi_offset 6, -16
	movq	%rsp, %rbp
	.seh_setframe	%rbp, 0
	.cfi_def_cfa_register 6
	subq	$32, %rsp
	.seh_stackalloc	32
	.seh_endprologue
	movq	%rcx, 16(%rbp)
	.loc 5 1170 20
	movq	16(%rbp), %rax
	movq	%rax, %rcx
	call	_ZNKSt7__cxx1112basic_stringIcSt11char_traitsIcESaIcEE11_M_is_localEv
	.loc 5 1170 23 discriminator 1
	testb	%al, %al
	je	.L102
	movl	$15, %eax
	.loc 5 1171 25
	jmp	.L104
.L102:
	.loc 5 1170 23 discriminator 2
	movq	16(%rbp), %rax
	movq	16(%rax), %rax
.L104:
	.loc 5 1172 7
	addq	$32, %rsp
	popq	%rbp
	.cfi_restore 6
	.cfi_def_cfa 7, 8
	ret
	.cfi_endproc
.LFE2881:
	.seh_endproc
	.section	.text$_ZNSt7__cxx1112basic_stringIcSt11char_traitsIcESaIcEE6assignEPKc,"x"
	.linkonce discard
	.align 2
	.globl	_ZNSt7__cxx1112basic_stringIcSt11char_traitsIcESaIcEE6assignEPKc
	.def	_ZNSt7__cxx1112basic_stringIcSt11char_traitsIcESaIcEE6assignEPKc;	.scl	2;	.type	32;	.endef
	.seh_proc	_ZNSt7__cxx1112basic_stringIcSt11char_traitsIcESaIcEE6assignEPKc
_ZNSt7__cxx1112basic_stringIcSt11char_traitsIcESaIcEE6assignEPKc:
.LFB2886:
	.loc 5 1680 7
	.cfi_startproc
	pushq	%rbp
	.seh_pushreg	%rbp
	.cfi_def_cfa_offset 16
	.cfi_offset 6, -16
	pushq	%rbx
	.seh_pushreg	%rbx
	.cfi_def_cfa_offset 24
	.cfi_offset 3, -24
	subq	$56, %rsp
	.seh_stackalloc	56
	.cfi_def_cfa_offset 80
	leaq	48(%rsp), %rbp
	.seh_setframe	%rbp, 48
	.cfi_def_cfa 6, 32
	.seh_endprologue
	movq	%rcx, 32(%rbp)
	movq	%rdx, 40(%rbp)
	.loc 5 1683 19
	movq	40(%rbp), %rax
	movq	%rax, %rcx
	call	_ZNSt11char_traitsIcE6lengthEPKc
	movq	%rax, %rbx
	.loc 5 1683 19 is_stmt 0 discriminator 1
	movq	32(%rbp), %rax
	movq	%rax, %rcx
	call	_ZNKSt7__cxx1112basic_stringIcSt11char_traitsIcESaIcEE4sizeEv
	movq	%rax, %rdx
	.loc 5 1683 19 discriminator 2
	movq	40(%rbp), %rcx
	movq	32(%rbp), %rax
	movq	%rbx, 32(%rsp)
	movq	%rcx, %r9
	movq	%rdx, %r8
	movl	$0, %edx
	movq	%rax, %rcx
	call	_ZNSt7__cxx1112basic_stringIcSt11char_traitsIcESaIcEE10_M_replaceEyyPKcy
	.loc 5 1685 7 is_stmt 1
	addq	$56, %rsp
	popq	%rbx
	.cfi_restore 3
	popq	%rbp
	.cfi_restore 6
	.cfi_def_cfa 7, -40
	ret
	.cfi_endproc
.LFE2886:
	.seh_endproc
	.section .rdata,"dr"
.LC3:
	.ascii "basic_string::_M_create\0"
	.section	.text$_ZNSt7__cxx1112basic_stringIcSt11char_traitsIcESaIcEE9_M_createERyy,"x"
	.linkonce discard
	.align 2
	.globl	_ZNSt7__cxx1112basic_stringIcSt11char_traitsIcESaIcEE9_M_createERyy
	.def	_ZNSt7__cxx1112basic_stringIcSt11char_traitsIcESaIcEE9_M_createERyy;	.scl	2;	.type	32;	.endef
	.seh_proc	_ZNSt7__cxx1112basic_stringIcSt11char_traitsIcESaIcEE9_M_createERyy
_ZNSt7__cxx1112basic_stringIcSt11char_traitsIcESaIcEE9_M_createERyy:
.LFB2890:
	.file 12 "D:/Program Files/JetBrains/CLion 2024.2.3/bin/mingw/lib/gcc/x86_64-w64-mingw32/13.1.0/include/c++/bits/basic_string.tcc"
	.loc 12 134 5
	.cfi_startproc
	pushq	%rbp
	.seh_pushreg	%rbp
	.cfi_def_cfa_offset 16
	.cfi_offset 6, -16
	pushq	%rbx
	.seh_pushreg	%rbx
	.cfi_def_cfa_offset 24
	.cfi_offset 3, -24
	subq	$72, %rsp
	.seh_stackalloc	72
	.cfi_def_cfa_offset 96
	leaq	64(%rsp), %rbp
	.seh_setframe	%rbp, 64
	.cfi_def_cfa 6, 32
	.seh_endprologue
	movq	%rcx, 32(%rbp)
	movq	%rdx, 40(%rbp)
	movq	%r8, 48(%rbp)
	.loc 12 139 22
	movq	40(%rbp), %rax
	movq	(%rax), %rbx
	.loc 12 139 32
	movq	32(%rbp), %rax
	movq	%rax, %rcx
	call	_ZNKSt7__cxx1112basic_stringIcSt11char_traitsIcESaIcEE8max_sizeEv
	.loc 12 139 22 discriminator 1
	cmpq	%rbx, %rax
	setb	%al
	.loc 12 139 7 discriminator 1
	testb	%al, %al
	je	.L108
	.loc 12 140 27
	leaq	.LC3(%rip), %rax
	movq	%rax, %rcx
	call	_ZSt20__throw_length_errorPKc
.L108:
	.loc 12 145 22
	movq	40(%rbp), %rax
	movq	(%rax), %rax
	.loc 12 145 7
	cmpq	%rax, 48(%rbp)
	jnb	.L109
	.loc 12 145 53 discriminator 1
	movq	40(%rbp), %rax
	movq	(%rax), %rdx
	.loc 12 145 57 discriminator 1
	movq	48(%rbp), %rax
	addq	%rax, %rax
	.loc 12 145 39 discriminator 1
	cmpq	%rax, %rdx
	jnb	.L109
	.loc 12 147 19
	movq	48(%rbp), %rax
	leaq	(%rax,%rax), %rdx
	.loc 12 147 15
	movq	40(%rbp), %rax
	movq	%rdx, (%rax)
	.loc 12 149 19
	movq	40(%rbp), %rax
	movq	(%rax), %rbx
	.loc 12 149 29
	movq	32(%rbp), %rax
	movq	%rax, %rcx
	call	_ZNKSt7__cxx1112basic_stringIcSt11char_traitsIcESaIcEE8max_sizeEv
	.loc 12 149 19 discriminator 1
	cmpq	%rbx, %rax
	setb	%al
	.loc 12 149 4 discriminator 1
	testb	%al, %al
	je	.L109
	.loc 12 150 27
	movq	32(%rbp), %rax
	movq	%rax, %rcx
	call	_ZNKSt7__cxx1112basic_stringIcSt11char_traitsIcESaIcEE8max_sizeEv
	.loc 12 150 17 discriminator 1
	movq	40(%rbp), %rdx
	movq	%rax, (%rdx)
.L109:
	.loc 12 155 37
	movq	40(%rbp), %rax
	movq	(%rax), %rax
	leaq	1(%rax), %rbx
	.loc 12 155 54
	movq	32(%rbp), %rax
	movq	%rax, %rcx
	call	_ZNSt7__cxx1112basic_stringIcSt11char_traitsIcESaIcEE16_M_get_allocatorEv
	movq	%rax, -8(%rbp)
	movq	%rbx, -16(%rbp)
	movq	-8(%rbp), %rax
	movq	%rax, -24(%rbp)
	movq	-16(%rbp), %rax
	movq	%rax, -32(%rbp)
.LBB95:
.LBB96:
.LBB97:
.LBB98:
	.loc 7 191 34
	call	_ZSt23__is_constant_evaluatedv
	.loc 7 191 2 discriminator 1
	testb	%al, %al
	je	.L110
	.loc 7 193 32
	movq	-32(%rbp), %rax
	movq	%rax, -32(%rbp)
	movl	$0, %eax
	andl	$1, %eax
	.loc 7 193 6
	testb	%al, %al
	je	.L111
	.loc 7 194 41
	call	_ZSt28__throw_bad_array_new_lengthv
.L111:
	.loc 7 195 45
	movq	-32(%rbp), %rax
	movq	%rax, %rcx
	call	_Znwy
	.loc 7 195 50
	jmp	.L112
.L110:
	.loc 7 198 40
	movq	-32(%rbp), %rdx
	movq	-24(%rbp), %rax
	movl	$0, %r8d
	movq	%rax, %rcx
	call	_ZNSt15__new_allocatorIcE8allocateEyPKv
	.loc 7 198 47
	nop
.L112:
.LBE98:
.LBE97:
	.file 13 "D:/Program Files/JetBrains/CLion 2024.2.3/bin/mingw/lib/gcc/x86_64-w64-mingw32/13.1.0/include/c++/bits/alloc_traits.h"
	.loc 13 482 32
	nop
.LBE96:
.LBE95:
	.loc 12 156 5
	addq	$72, %rsp
	popq	%rbx
	.cfi_restore 3
	popq	%rbp
	.cfi_restore 6
	.cfi_def_cfa 7, -56
	ret
	.cfi_endproc
.LFE2890:
	.seh_endproc
	.section	.text$_ZNSt7__cxx1112basic_stringIcSt11char_traitsIcESaIcEE10_M_destroyEy,"x"
	.linkonce discard
	.align 2
	.globl	_ZNSt7__cxx1112basic_stringIcSt11char_traitsIcESaIcEE10_M_destroyEy
	.def	_ZNSt7__cxx1112basic_stringIcSt11char_traitsIcESaIcEE10_M_destroyEy;	.scl	2;	.type	32;	.endef
	.seh_proc	_ZNSt7__cxx1112basic_stringIcSt11char_traitsIcESaIcEE10_M_destroyEy
_ZNSt7__cxx1112basic_stringIcSt11char_traitsIcESaIcEE10_M_destroyEy:
.LFB2892:
	.loc 5 299 7
	.cfi_startproc
	pushq	%rbp
	.seh_pushreg	%rbp
	.cfi_def_cfa_offset 16
	.cfi_offset 6, -16
	pushq	%rsi
	.seh_pushreg	%rsi
	.cfi_def_cfa_offset 24
	.cfi_offset 4, -24
	pushq	%rbx
	.seh_pushreg	%rbx
	.cfi_def_cfa_offset 32
	.cfi_offset 3, -32
	subq	$80, %rsp
	.seh_stackalloc	80
	.cfi_def_cfa_offset 112
	leaq	80(%rsp), %rbp
	.seh_setframe	%rbp, 80
	.cfi_def_cfa 6, 32
	.seh_endprologue
	movq	%rcx, 32(%rbp)
	movq	%rdx, 40(%rbp)
	.loc 5 300 34
	movq	40(%rbp), %rax
	leaq	1(%rax), %rsi
	movq	32(%rbp), %rax
	movq	%rax, %rcx
	call	_ZNKSt7__cxx1112basic_stringIcSt11char_traitsIcESaIcEE7_M_dataEv
	movq	%rax, %rbx
	.loc 5 300 51 discriminator 1
	movq	32(%rbp), %rax
	movq	%rax, %rcx
	call	_ZNSt7__cxx1112basic_stringIcSt11char_traitsIcESaIcEE16_M_get_allocatorEv
	movq	%rax, -8(%rbp)
	movq	%rbx, -16(%rbp)
	movq	%rsi, -24(%rbp)
	movq	-8(%rbp), %rax
	movq	%rax, -32(%rbp)
	movq	-16(%rbp), %rax
	movq	%rax, -40(%rbp)
	movq	-24(%rbp), %rax
	movq	%rax, -48(%rbp)
.LBB99:
.LBB100:
.LBB101:
.LBB102:
	.loc 7 205 34
	call	_ZSt23__is_constant_evaluatedv
	.loc 7 205 2 discriminator 1
	testb	%al, %al
	je	.L116
	.loc 7 207 23
	movq	-40(%rbp), %rax
	movq	%rax, %rcx
	call	_ZdlPv
	.loc 7 208 6
	jmp	.L117
.L116:
	.loc 7 210 35
	movq	-48(%rbp), %rcx
	movq	-40(%rbp), %rdx
	movq	-32(%rbp), %rax
	movq	%rcx, %r8
	movq	%rax, %rcx
	call	_ZNSt15__new_allocatorIcE10deallocateEPcy
.L117:
.LBE102:
.LBE101:
	.loc 13 516 35
	nop
.LBE100:
.LBE99:
	.loc 5 300 79
	nop
	addq	$80, %rsp
	popq	%rbx
	.cfi_restore 3
	popq	%rsi
	.cfi_restore 4
	popq	%rbp
	.cfi_restore 6
	.cfi_def_cfa 7, -56
	ret
	.cfi_endproc
.LFE2892:
	.seh_endproc
	.section	.text$_ZNKSt7__cxx1112basic_stringIcSt11char_traitsIcESaIcEE13_M_local_dataEv,"x"
	.linkonce discard
	.align 2
	.globl	_ZNKSt7__cxx1112basic_stringIcSt11char_traitsIcESaIcEE13_M_local_dataEv
	.def	_ZNKSt7__cxx1112basic_stringIcSt11char_traitsIcESaIcEE13_M_local_dataEv;	.scl	2;	.type	32;	.endef
	.seh_proc	_ZNKSt7__cxx1112basic_stringIcSt11char_traitsIcESaIcEE13_M_local_dataEv
_ZNKSt7__cxx1112basic_stringIcSt11char_traitsIcESaIcEE13_M_local_dataEv:
.LFB2893:
	.loc 5 249 7
	.cfi_startproc
	pushq	%rbp
	.seh_pushreg	%rbp
	.cfi_def_cfa_offset 16
	.cfi_offset 6, -16
	movq	%rsp, %rbp
	.seh_setframe	%rbp, 0
	.cfi_def_cfa_register 6
	subq	$32, %rsp
	.seh_stackalloc	32
	.seh_endprologue
	movq	%rcx, 16(%rbp)
	.loc 5 252 57
	movq	16(%rbp), %rax
	addq	$16, %rax
	.loc 5 252 55
	movq	%rax, %rcx
	call	_ZNSt19__ptr_traits_ptr_toIPKcS0_Lb0EE10pointer_toERS0_
	.loc 5 256 7
	addq	$32, %rsp
	popq	%rbp
	.cfi_restore 6
	.cfi_def_cfa 7, 8
	ret
	.cfi_endproc
.LFE2893:
	.seh_endproc
	.section	.text$_ZNKSt7__cxx1112basic_stringIcSt11char_traitsIcESaIcEE16_M_get_allocatorEv,"x"
	.linkonce discard
	.align 2
	.globl	_ZNKSt7__cxx1112basic_stringIcSt11char_traitsIcESaIcEE16_M_get_allocatorEv
	.def	_ZNKSt7__cxx1112basic_stringIcSt11char_traitsIcESaIcEE16_M_get_allocatorEv;	.scl	2;	.type	32;	.endef
	.seh_proc	_ZNKSt7__cxx1112basic_stringIcSt11char_traitsIcESaIcEE16_M_get_allocatorEv
_ZNKSt7__cxx1112basic_stringIcSt11char_traitsIcESaIcEE16_M_get_allocatorEv:
.LFB2967:
	.loc 5 352 7
	.cfi_startproc
	pushq	%rbp
	.seh_pushreg	%rbp
	.cfi_def_cfa_offset 16
	.cfi_offset 6, -16
	movq	%rsp, %rbp
	.seh_setframe	%rbp, 0
	.cfi_def_cfa_register 6
	.seh_endprologue
	movq	%rcx, 16(%rbp)
	.loc 5 353 16
	movq	16(%rbp), %rax
	.loc 5 353 29
	popq	%rbp
	.cfi_restore 6
	.cfi_def_cfa 7, 8
	ret
	.cfi_endproc
.LFE2967:
	.seh_endproc
	.section .rdata,"dr"
.LC4:
	.ascii "basic_string::_M_replace\0"
	.section	.text$_ZNSt7__cxx1112basic_stringIcSt11char_traitsIcESaIcEE10_M_replaceEyyPKcy,"x"
	.linkonce discard
	.align 2
	.globl	_ZNSt7__cxx1112basic_stringIcSt11char_traitsIcESaIcEE10_M_replaceEyyPKcy
	.def	_ZNSt7__cxx1112basic_stringIcSt11char_traitsIcESaIcEE10_M_replaceEyyPKcy;	.scl	2;	.type	32;	.endef
	.seh_proc	_ZNSt7__cxx1112basic_stringIcSt11char_traitsIcESaIcEE10_M_replaceEyyPKcy
_ZNSt7__cxx1112basic_stringIcSt11char_traitsIcESaIcEE10_M_replaceEyyPKcy:
.LFB2975:
	.loc 12 507 5
	.cfi_startproc
	pushq	%rbp
	.seh_pushreg	%rbp
	.cfi_def_cfa_offset 16
	.cfi_offset 6, -16
	movq	%rsp, %rbp
	.seh_setframe	%rbp, 0
	.cfi_def_cfa_register 6
	subq	$144, %rsp
	.seh_stackalloc	144
	.seh_endprologue
	movq	%rcx, 16(%rbp)
	movq	%rdx, 24(%rbp)
	movq	%r8, 32(%rbp)
	movq	%r9, 40(%rbp)
	.loc 12 511 22
	movq	48(%rbp), %rcx
	movq	32(%rbp), %rdx
	movq	16(%rbp), %rax
	leaq	.LC4(%rip), %r9
	movq	%rcx, %r8
	movq	%rax, %rcx
	call	_ZNKSt7__cxx1112basic_stringIcSt11char_traitsIcESaIcEE15_M_check_lengthEyyPKc
	.loc 12 513 46
	movq	16(%rbp), %rax
	movq	%rax, %rcx
	call	_ZNKSt7__cxx1112basic_stringIcSt11char_traitsIcESaIcEE4sizeEv
	movq	%rax, -8(%rbp)
	.loc 12 514 47
	movq	-8(%rbp), %rdx
	movq	48(%rbp), %rax
	addq	%rdx, %rax
	.loc 12 514 23
	subq	32(%rbp), %rax
	movq	%rax, -16(%rbp)
.LBB103:
	.loc 12 516 39
	movq	16(%rbp), %rax
	movq	%rax, %rcx
	call	_ZNKSt7__cxx1112basic_stringIcSt11char_traitsIcESaIcEE8capacityEv
	.loc 12 516 22 discriminator 1
	cmpq	-16(%rbp), %rax
	setnb	%al
	.loc 12 516 7 discriminator 1
	testb	%al, %al
	je	.L123
.LBB104:
	.loc 12 518 31
	movq	16(%rbp), %rax
	movq	%rax, %rcx
	call	_ZNKSt7__cxx1112basic_stringIcSt11char_traitsIcESaIcEE7_M_dataEv
	.loc 12 518 12 discriminator 1
	movq	24(%rbp), %rdx
	addq	%rdx, %rax
	movq	%rax, -24(%rbp)
	.loc 12 520 44
	movq	-8(%rbp), %rax
	subq	24(%rbp), %rax
	.loc 12 520 20
	subq	32(%rbp), %rax
	movq	%rax, -32(%rbp)
.LBB105:
	.loc 12 522 34
	call	_ZSt21is_constant_evaluatedv
	.loc 12 522 4 discriminator 1
	testb	%al, %al
	je	.L124
.LBB106:
	.loc 12 524 62
	movq	16(%rbp), %rax
	movq	%rax, %rcx
	call	_ZNSt7__cxx1112basic_stringIcSt11char_traitsIcESaIcEE16_M_get_allocatorEv
	movq	%rax, -72(%rbp)
	movq	-16(%rbp), %rax
	movq	%rax, -80(%rbp)
	movq	-72(%rbp), %rax
	movq	%rax, -88(%rbp)
	movq	-80(%rbp), %rax
	movq	%rax, -96(%rbp)
.LBB107:
.LBB108:
.LBB109:
.LBB110:
	.loc 7 191 34
	call	_ZSt23__is_constant_evaluatedv
	.loc 7 191 2 discriminator 1
	testb	%al, %al
	je	.L125
	.loc 7 193 32
	movq	-96(%rbp), %rax
	movq	%rax, -96(%rbp)
	movl	$0, %eax
	andl	$1, %eax
	.loc 7 193 6
	testb	%al, %al
	je	.L126
	.loc 7 194 41
	call	_ZSt28__throw_bad_array_new_lengthv
.L126:
	.loc 7 195 45
	movq	-96(%rbp), %rax
	movq	%rax, %rcx
	call	_Znwy
	.loc 7 195 50
	jmp	.L127
.L125:
	.loc 7 198 40
	movq	-96(%rbp), %rdx
	movq	-88(%rbp), %rax
	movl	$0, %r8d
	movq	%rax, %rcx
	call	_ZNSt15__new_allocatorIcE8allocateEyPKv
	.loc 7 198 47
	nop
.L127:
.LBE110:
.LBE109:
	.loc 13 482 32
	nop
.LBE108:
.LBE107:
	.loc 12 524 45 discriminator 2
	movq	%rax, -40(%rbp)
	.loc 12 526 37
	movq	16(%rbp), %rax
	movq	%rax, %rcx
	call	_ZNKSt7__cxx1112basic_stringIcSt11char_traitsIcESaIcEE7_M_dataEv
	movq	%rax, %rdx
	.loc 12 526 15 discriminator 1
	movq	24(%rbp), %rcx
	movq	-40(%rbp), %rax
	movq	%rcx, %r8
	movq	%rax, %rcx
	call	_ZNSt7__cxx1112basic_stringIcSt11char_traitsIcESaIcEE7_S_copyEPcPKcy
	.loc 12 527 15
	movq	-40(%rbp), %rdx
	movq	24(%rbp), %rax
	leaq	(%rdx,%rax), %rcx
	movq	48(%rbp), %rdx
	movq	40(%rbp), %rax
	movq	%rdx, %r8
	movq	%rax, %rdx
	call	_ZNSt7__cxx1112basic_stringIcSt11char_traitsIcESaIcEE7_S_copyEPcPKcy
	.loc 12 528 45
	movq	-24(%rbp), %rdx
	movq	32(%rbp), %rax
	addq	%rax, %rdx
	.loc 12 528 31
	movq	24(%rbp), %rcx
	movq	48(%rbp), %rax
	addq	%rax, %rcx
	.loc 12 528 15
	movq	-40(%rbp), %rax
	addq	%rcx, %rax
	movq	-32(%rbp), %rcx
	movq	%rcx, %r8
	movq	%rax, %rcx
	call	_ZNSt7__cxx1112basic_stringIcSt11char_traitsIcESaIcEE7_S_copyEPcPKcy
	.loc 12 529 15
	movq	16(%rbp), %rax
	movq	%rax, %rcx
	call	_ZNKSt7__cxx1112basic_stringIcSt11char_traitsIcESaIcEE7_M_dataEv
	movq	%rax, %rcx
	.loc 12 529 15 is_stmt 0 discriminator 1
	movq	-16(%rbp), %rdx
	movq	-40(%rbp), %rax
	movq	%rdx, %r8
	movq	%rax, %rdx
	call	_ZNSt7__cxx1112basic_stringIcSt11char_traitsIcESaIcEE7_S_copyEPcPKcy
	.loc 12 530 30 is_stmt 1
	movq	16(%rbp), %rax
	movq	%rax, %rcx
	call	_ZNSt7__cxx1112basic_stringIcSt11char_traitsIcESaIcEE16_M_get_allocatorEv
	movq	%rax, -48(%rbp)
	movq	-40(%rbp), %rax
	movq	%rax, -56(%rbp)
	movq	-16(%rbp), %rax
	movq	%rax, -64(%rbp)
.LBB111:
.LBB112:
	.loc 7 205 34
	call	_ZSt23__is_constant_evaluatedv
	.loc 7 205 2 discriminator 1
	testb	%al, %al
	je	.L129
	.loc 7 207 23
	movq	-56(%rbp), %rax
	movq	%rax, %rcx
	call	_ZdlPv
	.loc 7 208 6
	jmp	.L131
.L129:
	.loc 7 210 35
	movq	-64(%rbp), %rcx
	movq	-56(%rbp), %rdx
	movq	-48(%rbp), %rax
	movq	%rcx, %r8
	movq	%rax, %rcx
	call	_ZNSt15__new_allocatorIcE10deallocateEPcy
	jmp	.L131
.L124:
.LBE112:
.LBE111:
.LBE106:
	.loc 12 534 36
	movq	40(%rbp), %rdx
	movq	16(%rbp), %rax
	movq	%rax, %rcx
	call	_ZNKSt7__cxx1112basic_stringIcSt11char_traitsIcESaIcEE11_M_disjunctEPKc
	.loc 12 534 24 discriminator 1
	movzbl	%al, %eax
	.loc 12 534 24 is_stmt 0 discriminator 2
	testl	%eax, %eax
	setne	%al
	.loc 12 534 4 is_stmt 1 discriminator 2
	testb	%al, %al
	je	.L132
	.loc 12 536 8
	cmpq	$0, -32(%rbp)
	je	.L133
	.loc 12 536 23 discriminator 1
	movq	32(%rbp), %rax
	cmpq	48(%rbp), %rax
	je	.L133
	.loc 12 537 35
	movq	-24(%rbp), %rdx
	movq	32(%rbp), %rax
	addq	%rax, %rdx
	.loc 12 537 16
	movq	-24(%rbp), %rcx
	movq	48(%rbp), %rax
	addq	%rcx, %rax
	movq	-32(%rbp), %rcx
	movq	%rcx, %r8
	movq	%rax, %rcx
	call	_ZNSt7__cxx1112basic_stringIcSt11char_traitsIcESaIcEE7_S_moveEPcPKcy
.L133:
	.loc 12 538 8
	cmpq	$0, 48(%rbp)
	je	.L131
	.loc 12 539 16
	movq	48(%rbp), %rcx
	movq	40(%rbp), %rdx
	movq	-24(%rbp), %rax
	movq	%rcx, %r8
	movq	%rax, %rcx
	call	_ZNSt7__cxx1112basic_stringIcSt11char_traitsIcESaIcEE7_S_copyEPcPKcy
	jmp	.L131
.L132:
	.loc 12 542 21
	movq	40(%rbp), %r9
	movq	32(%rbp), %r8
	movq	-24(%rbp), %rdx
	movq	16(%rbp), %rax
	movq	-32(%rbp), %rcx
	movq	%rcx, 40(%rsp)
	movq	48(%rbp), %rcx
	movq	%rcx, 32(%rsp)
	movq	%rax, %rcx
	call	_ZNSt7__cxx1112basic_stringIcSt11char_traitsIcESaIcEE15_M_replace_coldEPcyPKcyy
	jmp	.L131
.L123:
.LBE105:
.LBE104:
	.loc 12 545 17
	movq	40(%rbp), %r9
	movq	32(%rbp), %r8
	movq	24(%rbp), %rdx
	movq	16(%rbp), %rax
	movq	48(%rbp), %rcx
	movq	%rcx, 32(%rsp)
	movq	%rax, %rcx
	call	_ZNSt7__cxx1112basic_stringIcSt11char_traitsIcESaIcEE9_M_mutateEyyPKcy
.L131:
.LBE103:
	.loc 12 547 26
	movq	-16(%rbp), %rdx
	movq	16(%rbp), %rax
	movq	%rax, %rcx
	call	_ZNSt7__cxx1112basic_stringIcSt11char_traitsIcESaIcEE13_M_set_lengthEy
	.loc 12 548 15
	movq	16(%rbp), %rax
	.loc 12 549 5
	addq	$144, %rsp
	popq	%rbp
	.cfi_restore 6
	.cfi_def_cfa 7, 8
	ret
	.cfi_endproc
.LFE2975:
	.seh_endproc
	.section	.text$_ZNKSt7__cxx1112basic_stringIcSt11char_traitsIcESaIcEE8max_sizeEv,"x"
	.linkonce discard
	.align 2
	.globl	_ZNKSt7__cxx1112basic_stringIcSt11char_traitsIcESaIcEE8max_sizeEv
	.def	_ZNKSt7__cxx1112basic_stringIcSt11char_traitsIcESaIcEE8max_sizeEv;	.scl	2;	.type	32;	.endef
	.seh_proc	_ZNKSt7__cxx1112basic_stringIcSt11char_traitsIcESaIcEE8max_sizeEv
_ZNKSt7__cxx1112basic_stringIcSt11char_traitsIcESaIcEE8max_sizeEv:
.LFB2976:
	.loc 5 1083 7
	.cfi_startproc
	pushq	%rbp
	.seh_pushreg	%rbp
	.cfi_def_cfa_offset 16
	.cfi_offset 6, -16
	movq	%rsp, %rbp
	.seh_setframe	%rbp, 0
	.cfi_def_cfa_register 6
	subq	$48, %rsp
	.seh_stackalloc	48
	.seh_endprologue
	movq	%rcx, 16(%rbp)
	.loc 5 1084 57
	movq	16(%rbp), %rax
	movq	%rax, %rcx
	call	_ZNKSt7__cxx1112basic_stringIcSt11char_traitsIcESaIcEE16_M_get_allocatorEv
	movq	%rax, -8(%rbp)
.LBB113:
.LBB114:
	.loc 13 575 39
	movq	$-1, %rax
.LBE114:
.LBE113:
	.loc 5 1084 61 discriminator 2
	subq	$1, %rax
	.loc 5 1084 68 discriminator 2
	shrq	%rax
	.loc 5 1084 71
	addq	$48, %rsp
	popq	%rbp
	.cfi_restore 6
	.cfi_def_cfa 7, 8
	ret
	.cfi_endproc
.LFE2976:
	.seh_endproc
	.section	.text$_ZNSt19__ptr_traits_ptr_toIPKcS0_Lb0EE10pointer_toERS0_,"x"
	.linkonce discard
	.globl	_ZNSt19__ptr_traits_ptr_toIPKcS0_Lb0EE10pointer_toERS0_
	.def	_ZNSt19__ptr_traits_ptr_toIPKcS0_Lb0EE10pointer_toERS0_;	.scl	2;	.type	32;	.endef
	.seh_proc	_ZNSt19__ptr_traits_ptr_toIPKcS0_Lb0EE10pointer_toERS0_
_ZNSt19__ptr_traits_ptr_toIPKcS0_Lb0EE10pointer_toERS0_:
.LFB2979:
	.loc 9 141 7
	.cfi_startproc
	pushq	%rbp
	.seh_pushreg	%rbp
	.cfi_def_cfa_offset 16
	.cfi_offset 6, -16
	movq	%rsp, %rbp
	.seh_setframe	%rbp, 0
	.cfi_def_cfa_register 6
	subq	$32, %rsp
	.seh_stackalloc	32
	.seh_endprologue
	movq	%rcx, 16(%rbp)
	.loc 9 142 30
	movq	16(%rbp), %rax
	movq	%rax, %rcx
	call	_ZSt9addressofIKcEPT_RS1_
	.loc 9 142 37
	addq	$32, %rsp
	popq	%rbp
	.cfi_restore 6
	.cfi_def_cfa 7, 8
	ret
	.cfi_endproc
.LFE2979:
	.seh_endproc
	.section	.text$_ZNSt7__cxx1112basic_stringIcSt11char_traitsIcESaIcEE7_S_copyEPcPKcy,"x"
	.linkonce discard
	.globl	_ZNSt7__cxx1112basic_stringIcSt11char_traitsIcESaIcEE7_S_copyEPcPKcy
	.def	_ZNSt7__cxx1112basic_stringIcSt11char_traitsIcESaIcEE7_S_copyEPcPKcy;	.scl	2;	.type	32;	.endef
	.seh_proc	_ZNSt7__cxx1112basic_stringIcSt11char_traitsIcESaIcEE7_S_copyEPcPKcy
_ZNSt7__cxx1112basic_stringIcSt11char_traitsIcESaIcEE7_S_copyEPcPKcy:
.LFB2989:
	.loc 5 426 7
	.cfi_startproc
	pushq	%rbp
	.seh_pushreg	%rbp
	.cfi_def_cfa_offset 16
	.cfi_offset 6, -16
	movq	%rsp, %rbp
	.seh_setframe	%rbp, 0
	.cfi_def_cfa_register 6
	subq	$32, %rsp
	.seh_stackalloc	32
	.seh_endprologue
	movq	%rcx, 16(%rbp)
	movq	%rdx, 24(%rbp)
	movq	%r8, 32(%rbp)
	.loc 5 428 2
	cmpq	$1, 32(%rbp)
	jne	.L141
	.loc 5 429 23
	movq	24(%rbp), %rdx
	movq	16(%rbp), %rax
	movq	%rax, %rcx
	call	_ZNSt11char_traitsIcE6assignERcRKc
	.loc 5 432 7
	jmp	.L143
.L141:
	.loc 5 431 21
	movq	32(%rbp), %rcx
	movq	24(%rbp), %rdx
	movq	16(%rbp), %rax
	movq	%rcx, %r8
	movq	%rax, %rcx
	call	_ZNSt11char_traitsIcE4copyEPcPKcy
.L143:
	.loc 5 432 7
	nop
	addq	$32, %rsp
	popq	%rbp
	.cfi_restore 6
	.cfi_def_cfa 7, 8
	ret
	.cfi_endproc
.LFE2989:
	.seh_endproc
	.section	.text$_ZNKSt7__cxx1112basic_stringIcSt11char_traitsIcESaIcEE15_M_check_lengthEyyPKc,"x"
	.linkonce discard
	.align 2
	.globl	_ZNKSt7__cxx1112basic_stringIcSt11char_traitsIcESaIcEE15_M_check_lengthEyyPKc
	.def	_ZNKSt7__cxx1112basic_stringIcSt11char_traitsIcESaIcEE15_M_check_lengthEyyPKc;	.scl	2;	.type	32;	.endef
	.seh_proc	_ZNKSt7__cxx1112basic_stringIcSt11char_traitsIcESaIcEE15_M_check_lengthEyyPKc
_ZNKSt7__cxx1112basic_stringIcSt11char_traitsIcESaIcEE15_M_check_lengthEyyPKc:
.LFB3040:
	.loc 5 398 7
	.cfi_startproc
	pushq	%rbp
	.seh_pushreg	%rbp
	.cfi_def_cfa_offset 16
	.cfi_offset 6, -16
	pushq	%rbx
	.seh_pushreg	%rbx
	.cfi_def_cfa_offset 24
	.cfi_offset 3, -24
	subq	$40, %rsp
	.seh_stackalloc	40
	.cfi_def_cfa_offset 64
	leaq	32(%rsp), %rbp
	.seh_setframe	%rbp, 32
	.cfi_def_cfa 6, 32
	.seh_endprologue
	movq	%rcx, 32(%rbp)
	movq	%rdx, 40(%rbp)
	movq	%r8, 48(%rbp)
	movq	%r9, 56(%rbp)
	.loc 5 400 20
	movq	32(%rbp), %rax
	movq	%rax, %rcx
	call	_ZNKSt7__cxx1112basic_stringIcSt11char_traitsIcESaIcEE8max_sizeEv
	movq	%rax, %rbx
	.loc 5 400 36 discriminator 1
	movq	32(%rbp), %rax
	movq	%rax, %rcx
	call	_ZNKSt7__cxx1112basic_stringIcSt11char_traitsIcESaIcEE4sizeEv
	.loc 5 400 39 discriminator 2
	movq	40(%rbp), %rdx
	subq	%rax, %rdx
	.loc 5 400 23 discriminator 2
	leaq	(%rbx,%rdx), %rax
	.loc 5 400 47 discriminator 2
	cmpq	48(%rbp), %rax
	setb	%al
	.loc 5 400 2 discriminator 2
	testb	%al, %al
	je	.L146
	.loc 5 401 24
	movq	56(%rbp), %rax
	movq	%rax, %rcx
	call	_ZSt20__throw_length_errorPKc
.L146:
	.loc 5 402 7
	nop
	addq	$40, %rsp
	popq	%rbx
	.cfi_restore 3
	popq	%rbp
	.cfi_restore 6
	.cfi_def_cfa 7, -24
	ret
	.cfi_endproc
.LFE3040:
	.seh_endproc
	.section	.text$_ZNKSt7__cxx1112basic_stringIcSt11char_traitsIcESaIcEE11_M_disjunctEPKc,"x"
	.linkonce discard
	.align 2
	.globl	_ZNKSt7__cxx1112basic_stringIcSt11char_traitsIcESaIcEE11_M_disjunctEPKc
	.def	_ZNKSt7__cxx1112basic_stringIcSt11char_traitsIcESaIcEE11_M_disjunctEPKc;	.scl	2;	.type	32;	.endef
	.seh_proc	_ZNKSt7__cxx1112basic_stringIcSt11char_traitsIcESaIcEE11_M_disjunctEPKc
_ZNKSt7__cxx1112basic_stringIcSt11char_traitsIcESaIcEE11_M_disjunctEPKc:
.LFB3045:
	.loc 5 416 7
	.cfi_startproc
	pushq	%rbp
	.seh_pushreg	%rbp
	.cfi_def_cfa_offset 16
	.cfi_offset 6, -16
	pushq	%rbx
	.seh_pushreg	%rbx
	.cfi_def_cfa_offset 24
	.cfi_offset 3, -24
	subq	$56, %rsp
	.seh_stackalloc	56
	.cfi_def_cfa_offset 80
	leaq	48(%rsp), %rbp
	.seh_setframe	%rbp, 48
	.cfi_def_cfa 6, 32
	.seh_endprologue
	movq	%rcx, 32(%rbp)
	movq	%rdx, 40(%rbp)
	.loc 5 418 44
	movq	32(%rbp), %rax
	movq	%rax, %rcx
	call	_ZNKSt7__cxx1112basic_stringIcSt11char_traitsIcESaIcEE7_M_dataEv
	movq	%rax, %rcx
	.loc 5 418 31 discriminator 1
	movq	40(%rbp), %rdx
	leaq	-2(%rbp), %rax
	movq	%rcx, %r8
	movq	%rax, %rcx
	call	_ZNKSt4lessIPKcEclES1_S1_
	.loc 5 419 3
	testb	%al, %al
	jne	.L148
	.loc 5 419 35 discriminator 2
	movq	32(%rbp), %rax
	movq	%rax, %rcx
	call	_ZNKSt7__cxx1112basic_stringIcSt11char_traitsIcESaIcEE7_M_dataEv
	movq	%rax, %rbx
	.loc 5 419 50 discriminator 1
	movq	32(%rbp), %rax
	movq	%rax, %rcx
	call	_ZNKSt7__cxx1112basic_stringIcSt11char_traitsIcESaIcEE4sizeEv
	.loc 5 419 38 discriminator 2
	leaq	(%rbx,%rax), %rdx
	.loc 5 419 27 discriminator 2
	movq	40(%rbp), %rcx
	leaq	-1(%rbp), %rax
	movq	%rcx, %r8
	movq	%rax, %rcx
	call	_ZNKSt4lessIPKcEclES1_S1_
	.loc 5 419 3 discriminator 3
	testb	%al, %al
	je	.L149
.L148:
	movl	$1, %eax
	.loc 5 419 3 is_stmt 0
	jmp	.L150
.L149:
	.loc 5 419 3 discriminator 4
	movl	$0, %eax
.L150:
	.loc 5 420 7 is_stmt 1
	addq	$56, %rsp
	popq	%rbx
	.cfi_restore 3
	popq	%rbp
	.cfi_restore 6
	.cfi_def_cfa 7, -40
	ret
	.cfi_endproc
.LFE3045:
	.seh_endproc
	.section	.text$_ZNSt7__cxx1112basic_stringIcSt11char_traitsIcESaIcEE7_S_moveEPcPKcy,"x"
	.linkonce discard
	.globl	_ZNSt7__cxx1112basic_stringIcSt11char_traitsIcESaIcEE7_S_moveEPcPKcy
	.def	_ZNSt7__cxx1112basic_stringIcSt11char_traitsIcESaIcEE7_S_moveEPcPKcy;	.scl	2;	.type	32;	.endef
	.seh_proc	_ZNSt7__cxx1112basic_stringIcSt11char_traitsIcESaIcEE7_S_moveEPcPKcy
_ZNSt7__cxx1112basic_stringIcSt11char_traitsIcESaIcEE7_S_moveEPcPKcy:
.LFB3046:
	.loc 5 436 7
	.cfi_startproc
	pushq	%rbp
	.seh_pushreg	%rbp
	.cfi_def_cfa_offset 16
	.cfi_offset 6, -16
	movq	%rsp, %rbp
	.seh_setframe	%rbp, 0
	.cfi_def_cfa_register 6
	subq	$32, %rsp
	.seh_stackalloc	32
	.seh_endprologue
	movq	%rcx, 16(%rbp)
	movq	%rdx, 24(%rbp)
	movq	%r8, 32(%rbp)
	.loc 5 438 2
	cmpq	$1, 32(%rbp)
	jne	.L153
	.loc 5 439 23
	movq	24(%rbp), %rdx
	movq	16(%rbp), %rax
	movq	%rax, %rcx
	call	_ZNSt11char_traitsIcE6assignERcRKc
	.loc 5 442 7
	jmp	.L155
.L153:
	.loc 5 441 21
	movq	32(%rbp), %rcx
	movq	24(%rbp), %rdx
	movq	16(%rbp), %rax
	movq	%rcx, %r8
	movq	%rax, %rcx
	call	_ZNSt11char_traitsIcE4moveEPcPKcy
.L155:
	.loc 5 442 7
	nop
	addq	$32, %rsp
	popq	%rbp
	.cfi_restore 6
	.cfi_def_cfa 7, 8
	ret
	.cfi_endproc
.LFE3046:
	.seh_endproc
	.section	.text$_ZNSt7__cxx1112basic_stringIcSt11char_traitsIcESaIcEE9_M_mutateEyyPKcy,"x"
	.linkonce discard
	.align 2
	.globl	_ZNSt7__cxx1112basic_stringIcSt11char_traitsIcESaIcEE9_M_mutateEyyPKcy
	.def	_ZNSt7__cxx1112basic_stringIcSt11char_traitsIcESaIcEE9_M_mutateEyyPKcy;	.scl	2;	.type	32;	.endef
	.seh_proc	_ZNSt7__cxx1112basic_stringIcSt11char_traitsIcESaIcEE9_M_mutateEyyPKcy
_ZNSt7__cxx1112basic_stringIcSt11char_traitsIcESaIcEE9_M_mutateEyyPKcy:
.LFB3047:
	.loc 12 321 5
	.cfi_startproc
	pushq	%rbp
	.seh_pushreg	%rbp
	.cfi_def_cfa_offset 16
	.cfi_offset 6, -16
	movq	%rsp, %rbp
	.seh_setframe	%rbp, 0
	.cfi_def_cfa_register 6
	subq	$64, %rsp
	.seh_stackalloc	64
	.seh_endprologue
	movq	%rcx, 16(%rbp)
	movq	%rdx, 24(%rbp)
	movq	%r8, 32(%rbp)
	movq	%r9, 40(%rbp)
	.loc 12 325 42
	movq	16(%rbp), %rax
	movq	%rax, %rcx
	call	_ZNKSt7__cxx1112basic_stringIcSt11char_traitsIcESaIcEE6lengthEv
	.loc 12 325 45 discriminator 1
	subq	24(%rbp), %rax
	.loc 12 325 23 discriminator 1
	subq	32(%rbp), %rax
	movq	%rax, -8(%rbp)
	.loc 12 327 40
	movq	16(%rbp), %rax
	movq	%rax, %rcx
	call	_ZNKSt7__cxx1112basic_stringIcSt11char_traitsIcESaIcEE6lengthEv
	.loc 12 327 43 discriminator 1
	movq	48(%rbp), %rdx
	addq	%rdx, %rax
	.loc 12 327 52 discriminator 1
	subq	32(%rbp), %rax
	.loc 12 327 17 discriminator 1
	movq	%rax, -24(%rbp)
	.loc 12 328 30
	movq	16(%rbp), %rax
	movq	%rax, %rcx
	call	_ZNKSt7__cxx1112basic_stringIcSt11char_traitsIcESaIcEE8capacityEv
	movq	%rax, %rcx
	.loc 12 328 30 is_stmt 0 discriminator 1
	leaq	-24(%rbp), %rdx
	movq	16(%rbp), %rax
	movq	%rcx, %r8
	movq	%rax, %rcx
	call	_ZNSt7__cxx1112basic_stringIcSt11char_traitsIcESaIcEE9_M_createERyy
	movq	%rax, -16(%rbp)
	.loc 12 330 7 is_stmt 1
	cmpq	$0, 24(%rbp)
	je	.L157
	.loc 12 331 28
	movq	16(%rbp), %rax
	movq	%rax, %rcx
	call	_ZNKSt7__cxx1112basic_stringIcSt11char_traitsIcESaIcEE7_M_dataEv
	movq	%rax, %rdx
	.loc 12 331 15 discriminator 1
	movq	24(%rbp), %rcx
	movq	-16(%rbp), %rax
	movq	%rcx, %r8
	movq	%rax, %rcx
	call	_ZNSt7__cxx1112basic_stringIcSt11char_traitsIcESaIcEE7_S_copyEPcPKcy
.L157:
	.loc 12 332 7
	cmpq	$0, 40(%rbp)
	je	.L158
	.loc 12 332 15 discriminator 1
	cmpq	$0, 48(%rbp)
	je	.L158
	.loc 12 333 15
	movq	-16(%rbp), %rdx
	movq	24(%rbp), %rax
	leaq	(%rdx,%rax), %rcx
	movq	48(%rbp), %rdx
	movq	40(%rbp), %rax
	movq	%rdx, %r8
	movq	%rax, %rdx
	call	_ZNSt7__cxx1112basic_stringIcSt11char_traitsIcESaIcEE7_S_copyEPcPKcy
.L158:
	.loc 12 334 7
	cmpq	$0, -8(%rbp)
	je	.L159
	.loc 12 336 16
	movq	16(%rbp), %rax
	movq	%rax, %rcx
	call	_ZNKSt7__cxx1112basic_stringIcSt11char_traitsIcESaIcEE7_M_dataEv
	.loc 12 336 27 discriminator 1
	movq	24(%rbp), %rcx
	movq	32(%rbp), %rdx
	addq	%rcx, %rdx
	addq	%rax, %rdx
	.loc 12 335 28
	movq	24(%rbp), %rcx
	movq	48(%rbp), %rax
	addq	%rax, %rcx
	.loc 12 335 15
	movq	-16(%rbp), %rax
	addq	%rcx, %rax
	movq	-8(%rbp), %rcx
	movq	%rcx, %r8
	movq	%rax, %rcx
	call	_ZNSt7__cxx1112basic_stringIcSt11char_traitsIcESaIcEE7_S_copyEPcPKcy
.L159:
	.loc 12 338 17
	movq	16(%rbp), %rax
	movq	%rax, %rcx
	call	_ZNSt7__cxx1112basic_stringIcSt11char_traitsIcESaIcEE10_M_disposeEv
	.loc 12 339 14
	movq	-16(%rbp), %rdx
	movq	16(%rbp), %rax
	movq	%rax, %rcx
	call	_ZNSt7__cxx1112basic_stringIcSt11char_traitsIcESaIcEE7_M_dataEPc
	.loc 12 340 18
	movq	-24(%rbp), %rdx
	movq	16(%rbp), %rax
	movq	%rax, %rcx
	call	_ZNSt7__cxx1112basic_stringIcSt11char_traitsIcESaIcEE11_M_capacityEy
	.loc 12 341 5
	nop
	addq	$64, %rsp
	popq	%rbp
	.cfi_restore 6
	.cfi_def_cfa 7, 8
	ret
	.cfi_endproc
.LFE3047:
	.seh_endproc
	.section	.text$_ZSt9addressofIKcEPT_RS1_,"x"
	.linkonce discard
	.globl	_ZSt9addressofIKcEPT_RS1_
	.def	_ZSt9addressofIKcEPT_RS1_;	.scl	2;	.type	32;	.endef
	.seh_proc	_ZSt9addressofIKcEPT_RS1_
_ZSt9addressofIKcEPT_RS1_:
.LFB3050:
	.loc 10 145 5
	.cfi_startproc
	pushq	%rbp
	.seh_pushreg	%rbp
	.cfi_def_cfa_offset 16
	.cfi_offset 6, -16
	movq	%rsp, %rbp
	.seh_setframe	%rbp, 0
	.cfi_def_cfa_register 6
	subq	$32, %rsp
	.seh_stackalloc	32
	.seh_endprologue
	movq	%rcx, 16(%rbp)
	.loc 10 146 30
	movq	16(%rbp), %rax
	movq	%rax, %rcx
	call	_ZSt11__addressofIKcEPT_RS1_
	.loc 10 146 37
	addq	$32, %rsp
	popq	%rbp
	.cfi_restore 6
	.cfi_def_cfa 7, 8
	ret
	.cfi_endproc
.LFE3050:
	.seh_endproc
	.section	.text$_ZNSt15__new_allocatorIcE10deallocateEPcy,"x"
	.linkonce discard
	.align 2
	.globl	_ZNSt15__new_allocatorIcE10deallocateEPcy
	.def	_ZNSt15__new_allocatorIcE10deallocateEPcy;	.scl	2;	.type	32;	.endef
	.seh_proc	_ZNSt15__new_allocatorIcE10deallocateEPcy
_ZNSt15__new_allocatorIcE10deallocateEPcy:
.LFB3077:
	.loc 8 152 7
	.cfi_startproc
	pushq	%rbp
	.seh_pushreg	%rbp
	.cfi_def_cfa_offset 16
	.cfi_offset 6, -16
	movq	%rsp, %rbp
	.seh_setframe	%rbp, 0
	.cfi_def_cfa_register 6
	subq	$32, %rsp
	.seh_stackalloc	32
	.seh_endprologue
	movq	%rcx, 16(%rbp)
	movq	%rdx, 24(%rbp)
	movq	%r8, 32(%rbp)
	.loc 8 168 19
	movq	32(%rbp), %rdx
	movq	24(%rbp), %rax
	movq	%rax, %rcx
	call	_ZdlPvy
	nop
	.loc 8 169 7
	addq	$32, %rsp
	popq	%rbp
	.cfi_restore 6
	.cfi_def_cfa 7, 8
	ret
	.cfi_endproc
.LFE3077:
	.seh_endproc
	.section	.text$_ZNKSt4lessIPKcEclES1_S1_,"x"
	.linkonce discard
	.align 2
	.globl	_ZNKSt4lessIPKcEclES1_S1_
	.def	_ZNKSt4lessIPKcEclES1_S1_;	.scl	2;	.type	32;	.endef
	.seh_proc	_ZNKSt4lessIPKcEclES1_S1_
_ZNKSt4lessIPKcEclES1_S1_:
.LFB3078:
	.file 14 "D:/Program Files/JetBrains/CLion 2024.2.3/bin/mingw/lib/gcc/x86_64-w64-mingw32/13.1.0/include/c++/bits/stl_function.h"
	.loc 14 451 7
	.cfi_startproc
	pushq	%rbp
	.seh_pushreg	%rbp
	.cfi_def_cfa_offset 16
	.cfi_offset 6, -16
	movq	%rsp, %rbp
	.seh_setframe	%rbp, 0
	.cfi_def_cfa_register 6
	subq	$32, %rsp
	.seh_stackalloc	32
	.seh_endprologue
	movq	%rcx, 16(%rbp)
	movq	%rdx, 24(%rbp)
	movq	%r8, 32(%rbp)
	.loc 14 454 34
	call	_ZSt23__is_constant_evaluatedv
	.loc 14 454 2 discriminator 1
	testb	%al, %al
	je	.L165
	.loc 14 455 17
	movq	24(%rbp), %rax
	cmpq	32(%rbp), %rax
	setb	%al
	jmp	.L166
.L165:
	.loc 14 457 37
	movq	24(%rbp), %rdx
	movq	32(%rbp), %rax
	.loc 14 457 63
	cmpq	%rax, %rdx
	setb	%al
.L166:
	.loc 14 458 7
	addq	$32, %rsp
	popq	%rbp
	.cfi_restore 6
	.cfi_def_cfa 7, 8
	ret
	.cfi_endproc
.LFE3078:
	.seh_endproc
	.section	.text$_ZNSt15__new_allocatorIcE8allocateEyPKv,"x"
	.linkonce discard
	.align 2
	.globl	_ZNSt15__new_allocatorIcE8allocateEyPKv
	.def	_ZNSt15__new_allocatorIcE8allocateEyPKv;	.scl	2;	.type	32;	.endef
	.seh_proc	_ZNSt15__new_allocatorIcE8allocateEyPKv
_ZNSt15__new_allocatorIcE8allocateEyPKv:
.LFB3079:
	.loc 8 122 7
	.cfi_startproc
	pushq	%rbp
	.seh_pushreg	%rbp
	.cfi_def_cfa_offset 16
	.cfi_offset 6, -16
	movq	%rsp, %rbp
	.seh_setframe	%rbp, 0
	.cfi_def_cfa_register 6
	subq	$48, %rsp
	.seh_stackalloc	48
	.seh_endprologue
	movq	%rcx, 16(%rbp)
	movq	%rdx, 24(%rbp)
	movq	%r8, 32(%rbp)
	movq	16(%rbp), %rax
	movq	%rax, -8(%rbp)
.LBB115:
.LBB116:
	.loc 8 229 55
	movabsq	$9223372036854775807, %rax
.LBE116:
.LBE115:
	.loc 8 130 27 discriminator 1
	cmpq	24(%rbp), %rax
	setb	%al
	.loc 8 130 22 discriminator 1
	movzbl	%al, %eax
	.loc 8 130 22 is_stmt 0 discriminator 2
	testl	%eax, %eax
	setne	%al
	.loc 8 130 2 is_stmt 1 discriminator 2
	testb	%al, %al
	je	.L169
	.loc 8 136 28
	call	_ZSt17__throw_bad_allocv
.L169:
	.loc 8 147 41
	movq	24(%rbp), %rax
	movq	%rax, %rcx
	call	_Znwy
	.loc 8 147 60
	nop
	.loc 8 148 7
	addq	$48, %rsp
	popq	%rbp
	.cfi_restore 6
	.cfi_def_cfa 7, 8
	ret
	.cfi_endproc
.LFE3079:
	.seh_endproc
	.section	.text$_ZSt11__addressofIKcEPT_RS1_,"x"
	.linkonce discard
	.globl	_ZSt11__addressofIKcEPT_RS1_
	.def	_ZSt11__addressofIKcEPT_RS1_;	.scl	2;	.type	32;	.endef
	.seh_proc	_ZSt11__addressofIKcEPT_RS1_
_ZSt11__addressofIKcEPT_RS1_:
.LFB3080:
	.loc 10 49 5
	.cfi_startproc
	pushq	%rbp
	.seh_pushreg	%rbp
	.cfi_def_cfa_offset 16
	.cfi_offset 6, -16
	movq	%rsp, %rbp
	.seh_setframe	%rbp, 0
	.cfi_def_cfa_register 6
	.seh_endprologue
	movq	%rcx, 16(%rbp)
	.loc 10 50 37
	movq	16(%rbp), %rax
	.loc 10 50 40
	popq	%rbp
	.cfi_restore 6
	.cfi_def_cfa 7, 8
	ret
	.cfi_endproc
.LFE3080:
	.seh_endproc
	.section .rdata,"dr"
_ZNSt8__detail30__integer_to_chars_is_unsignedIjEE:
	.byte	1
_ZNSt8__detail30__integer_to_chars_is_unsignedImEE:
	.byte	1
_ZNSt8__detail30__integer_to_chars_is_unsignedIyEE:
	.byte	1
	.text
.Letext0:
	.file 15 "D:/Program Files/JetBrains/CLion 2024.2.3/bin/mingw/x86_64-w64-mingw32/include/corecrt.h"
	.file 16 "D:/Program Files/JetBrains/CLion 2024.2.3/bin/mingw/x86_64-w64-mingw32/include/locale.h"
	.file 17 "D:/Program Files/JetBrains/CLion 2024.2.3/bin/mingw/x86_64-w64-mingw32/include/wchar.h"
	.file 18 "D:/Program Files/JetBrains/CLion 2024.2.3/bin/mingw/lib/gcc/x86_64-w64-mingw32/13.1.0/include/c++/cwchar"
	.file 19 "D:/Program Files/JetBrains/CLion 2024.2.3/bin/mingw/lib/gcc/x86_64-w64-mingw32/13.1.0/include/c++/bits/exception_ptr.h"
	.file 20 "D:/Program Files/JetBrains/CLion 2024.2.3/bin/mingw/lib/gcc/x86_64-w64-mingw32/13.1.0/include/c++/concepts"
	.file 21 "D:/Program Files/JetBrains/CLion 2024.2.3/bin/mingw/lib/gcc/x86_64-w64-mingw32/13.1.0/include/c++/bits/iterator_concepts.h"
	.file 22 "D:/Program Files/JetBrains/CLion 2024.2.3/bin/mingw/lib/gcc/x86_64-w64-mingw32/13.1.0/include/c++/compare"
	.file 23 "D:/Program Files/JetBrains/CLion 2024.2.3/bin/mingw/lib/gcc/x86_64-w64-mingw32/13.1.0/include/c++/bits/charconv.h"
	.file 24 "D:/Program Files/JetBrains/CLion 2024.2.3/bin/mingw/lib/gcc/x86_64-w64-mingw32/13.1.0/include/c++/clocale"
	.file 25 "D:/Program Files/JetBrains/CLion 2024.2.3/bin/mingw/lib/gcc/x86_64-w64-mingw32/13.1.0/include/c++/debug/debug.h"
	.file 26 "D:/Program Files/JetBrains/CLion 2024.2.3/bin/mingw/lib/gcc/x86_64-w64-mingw32/13.1.0/include/c++/numbers"
	.file 27 "D:/Program Files/JetBrains/CLion 2024.2.3/bin/mingw/lib/gcc/x86_64-w64-mingw32/13.1.0/include/c++/string_view"
	.file 28 "D:/Program Files/JetBrains/CLion 2024.2.3/bin/mingw/lib/gcc/x86_64-w64-mingw32/13.1.0/include/c++/cstdlib"
	.file 29 "D:/Program Files/JetBrains/CLion 2024.2.3/bin/mingw/lib/gcc/x86_64-w64-mingw32/13.1.0/include/c++/cstdio"
	.file 30 "D:/Program Files/JetBrains/CLion 2024.2.3/bin/mingw/lib/gcc/x86_64-w64-mingw32/13.1.0/include/c++/initializer_list"
	.file 31 "D:/Program Files/JetBrains/CLion 2024.2.3/bin/mingw/lib/gcc/x86_64-w64-mingw32/13.1.0/include/c++/cstddef"
	.file 32 "D:/Program Files/JetBrains/CLion 2024.2.3/bin/mingw/lib/gcc/x86_64-w64-mingw32/13.1.0/include/c++/bits/memory_resource.h"
	.file 33 "D:/Program Files/JetBrains/CLion 2024.2.3/bin/mingw/lib/gcc/x86_64-w64-mingw32/13.1.0/include/c++/bits/stringfwd.h"
	.file 34 "D:/Program Files/JetBrains/CLion 2024.2.3/bin/mingw/lib/gcc/x86_64-w64-mingw32/13.1.0/include/c++/system_error"
	.file 35 "D:/Program Files/JetBrains/CLion 2024.2.3/bin/mingw/lib/gcc/x86_64-w64-mingw32/13.1.0/include/c++/cwctype"
	.file 36 "D:/Program Files/JetBrains/CLion 2024.2.3/bin/mingw/lib/gcc/x86_64-w64-mingw32/13.1.0/include/c++/bits/stl_iterator_base_types.h"
	.file 37 "D:/Program Files/JetBrains/CLion 2024.2.3/bin/mingw/lib/gcc/x86_64-w64-mingw32/13.1.0/include/c++/bits/functexcept.h"
	.file 38 "D:/Program Files/JetBrains/CLion 2024.2.3/bin/mingw/x86_64-w64-mingw32/include/swprintf.inl"
	.file 39 "D:/Program Files/JetBrains/CLion 2024.2.3/bin/mingw/lib/gcc/x86_64-w64-mingw32/13.1.0/include/c++/bits/predefined_ops.h"
	.file 40 "D:/Program Files/JetBrains/CLion 2024.2.3/bin/mingw/lib/gcc/x86_64-w64-mingw32/13.1.0/include/c++/ext/alloc_traits.h"
	.file 41 "D:/Program Files/JetBrains/CLion 2024.2.3/bin/mingw/lib/gcc/x86_64-w64-mingw32/13.1.0/include/c++/bits/stl_iterator.h"
	.file 42 "D:/Program Files/JetBrains/CLion 2024.2.3/bin/mingw/x86_64-w64-mingw32/include/stddef.h"
	.file 43 "D:/Program Files/JetBrains/CLion 2024.2.3/bin/mingw/x86_64-w64-mingw32/include/stdio.h"
	.file 44 "D:/Program Files/JetBrains/CLion 2024.2.3/bin/mingw/x86_64-w64-mingw32/include/stdlib.h"
	.file 45 "D:/Program Files/JetBrains/CLion 2024.2.3/bin/mingw/x86_64-w64-mingw32/include/process.h"
	.file 46 "D:/Program Files/JetBrains/CLion 2024.2.3/bin/mingw/x86_64-w64-mingw32/include/wctype.h"
	.file 47 "D:/Program Files/JetBrains/CLion 2024.2.3/bin/mingw/lib/gcc/x86_64-w64-mingw32/13.1.0/include/c++/bits/ranges_cmp.h"